MPASM 5.87          TX_CODE_RESTRUCTURED.ASM   5-23-2023  21:17:45         PAGE  1


LOC  OBJECT CODE     LINE SOURCE TEXT
  VALUE

                      00001 
                      00002 ; PICBASIC PRO(TM) Compiler 3.1.6.2, (c) 1997, 2022 ME Labs, Inc. All Rights Reserved. 
  00000001            00003 MPASMX_USED                     EQU     1
                      00004 
                      00005 #define PBP_PATH        C:\PROGRAM FILES (X86)\PBP3_1\
                      00006 
                      00007 
                      00008 
                      00009 
                      00016         LIST
                      00017         LIST p = 18F2550, r = dec, w = -311, w = -230, f = inhx32
                      00018         INCLUDE "P18F2550.INC"  ; MPASM  Header
                      00001         LIST
                      00002 
                      00003 ;==========================================================================
                      00004 ; Build date : Jan 06 2020
                      00005 ;  MPASM PIC18F2550 processor include
                      00006 ; 
                      00007 ;  (c) Copyright 1999-2020 Microchip Technology, All rights reserved
                      00008 ;==========================================================================
                      00009 
                      01578         LIST
                      00021         LIST
  00F00000            00022 EEPROM_START    EQU     0F00000h
  00000020            00023 BLOCK_SIZE      EQU     32
                      00024 
                      00025 
                      00026 PBP_HARDWAREDEF  macro
                      00027   endm
                      00028 
                      00029 
24 0E 3F 13 81 81 0F C00030     CONFIG  PLLDIV = 5            ; Divide by 5 (20 MHz oscillator input)
       0 0F E0 0F 40 
                      00031     CONFIG  CPUDIV = OSC1_PLL2    ; [Primary Oscillator Src: /1][96 MHz PLL Src: /2]
                      00032     CONFIG  USBDIV = 2            ; USB clock source comes from the 96 MHz PLL divided by 2
                      00033     CONFIG  FOSC = HSPLL_HS       ; HS oscillator, PLL enabled (HSPLL)
                      00034     CONFIG  FCMEN = OFF           ; Fail-Safe Clock Monitor disabled
                      00035     CONFIG  IESO = OFF            ; Oscillator Switchover mode disabled
                      00036     CONFIG  PWRT = OFF            ; PWRT disabled
                      00037     CONFIG  BOR = ON              ; Brown-out Reset enabled in hardware only (SBOREN is disabled)
                      00038     CONFIG  BORV = 3              ; Minimum setting
                      00039     CONFIG  VREGEN = ON           ; USB voltage regulator enabled
                      00040     CONFIG  WDT = ON              ; WDT enabled
                      00041     CONFIG  WDTPS = 512           ; 1:512
                      00042     CONFIG  CCP2MX = ON           ; CCP2 input/output is multiplexed with RC1
                      00043     CONFIG  PBADEN = OFF          ; PORTB<4:0> pins are configured as digital I/O on Reset
                      00044     CONFIG  LPT1OSC = OFF         ; Timer1 configured for higher power operation
                      00045     CONFIG  MCLRE = ON            ; MCLR pin enabled; RE3 input pin disabled
                      00046     CONFIG  STVREN = ON           ; Stack full/underflow will cause Reset
                      00047     CONFIG  LVP = OFF             ; Single-Supply ICSP disabled
                      00048     CONFIG  XINST = OFF           ; Instruction set extension and Indexed Addressing mode disabled (Lega
                            cy mode)
                      00049     CONFIG  DEBUG = OFF           ; Background debugger disabled, RB6 and RB7 configured as general purp
MPASM 5.87          TX_CODE_RESTRUCTURED.ASM   5-23-2023  21:17:45         PAGE  2


LOC  OBJECT CODE     LINE SOURCE TEXT
  VALUE

                            ose I/O pins
                      00050     CONFIG  CP0 = OFF             ; Block 0 (000800-001FFFh) is not code-protected
                      00051     CONFIG  CP1 = OFF             ; Block 1 (002000-003FFFh) is not code-protected
                      00052     CONFIG  CP2 = OFF             ; Block 2 (004000-005FFFh) is not code-protected
                      00053     CONFIG  CP3 = OFF             ; Block 3 (006000-007FFFh) is not code-protected
                      00054     CONFIG  CPB = OFF             ; Boot block (000000-0007FFh) is not code-protected
                      00055     CONFIG  CPD = OFF             ; Data EEPROM is not code-protected
                      00056     CONFIG  WRT0 = OFF            ; Block 0 (000800-001FFFh) is not write-protected
                      00057     CONFIG  WRT1 = OFF            ; Block 1 (002000-003FFFh) is not write-protected
                      00058     CONFIG  WRT2 = OFF            ; Block 2 (004000-005FFFh) is not write-protected
                      00059     CONFIG  WRT3 = OFF            ; Block 3 (006000-007FFFh) is not write-protected
                      00060     CONFIG  WRTC = OFF            ; Configuration registers (300000-3000FFh) are not write-protected
                      00061     CONFIG  WRTB = OFF            ; Boot block (000000-0007FFh) is not write-protected
                      00062     CONFIG  WRTD = OFF            ; Data EEPROM is not write-protected
                      00063     CONFIG  EBTR0 = OFF           ; Block 0 (000800-001FFFh) is not protected from table reads executed 
                            in other blocks
                      00064     CONFIG  EBTR1 = OFF           ; Block 1 (002000-003FFFh) is not protected from table reads executed 
                            in other blocks
                      00065     CONFIG  EBTR2 = OFF           ; Block 2 (004000-005FFFh) is not protected from table reads executed 
                            in other blocks
                      00066     CONFIG  EBTR3 = OFF           ; Block 3 (006000-007FFFh) is not protected from table reads executed 
                            in other blocks
                      00067     CONFIG  EBTRB = OFF           ; Boot block (000000-0007FFh) is not protected from table reads execut
                            ed in other blocks
                      00068 
                      00069 
                      00070 
                      00071 ; Define statements.
                      00072 ; C:\USERS\CONNO\DOCUMENTS\4TH YEAR\PROJECT\PIC CODE\TX_CODE_RESTRUCTURED.PBP   00011   DEFINE OSC 4
                      00073 #define         OSC              4
                      00074 
  00000000            00075 RAM_START                       EQU     00000h
  000007FF            00076 RAM_END                         EQU     007FFh
  00000008            00077 RAM_BANKS                       EQU     00008h
  00000060            00078 BANK0_START                     EQU     00060h
  000000FF            00079 BANK0_END                       EQU     000FFh
  00000100            00080 BANK1_START                     EQU     00100h
  000001FF            00081 BANK1_END                       EQU     001FFh
  00000200            00082 BANK2_START                     EQU     00200h
  000002FF            00083 BANK2_END                       EQU     002FFh
  00000300            00084 BANK3_START                     EQU     00300h
  000003FF            00085 BANK3_END                       EQU     003FFh
  00000400            00086 BANK4_START                     EQU     00400h
  000004FF            00087 BANK4_END                       EQU     004FFh
  00000500            00088 BANK5_START                     EQU     00500h
  000005FF            00089 BANK5_END                       EQU     005FFh
  00000600            00090 BANK6_START                     EQU     00600h
  000006FF            00091 BANK6_END                       EQU     006FFh
  00000700            00092 BANK7_START                     EQU     00700h
  000007FF            00093 BANK7_END                       EQU     007FFh
  00000000            00094 BANKA_START                     EQU     00000h
  0000005F            00095 BANKA_END                       EQU     0005Fh
                      00096 
MPASM 5.87          TX_CODE_RESTRUCTURED.ASM   5-23-2023  21:17:45         PAGE  3


LOC  OBJECT CODE     LINE SOURCE TEXT
  VALUE

                      00097 ; C:\PROGRAM FILES (X86)\PBP3_1\PBPPIC18.RAM    00028   A00000  FLAGS   VAR     BYTE BANKA SYSTEM       
                            ' Static flags
  00000000            00098 FLAGS                           EQU     RAM_START + 000h
                      00099 ; C:\PROGRAM FILES (X86)\PBP3_1\PBPPIC18.RAM    00027   A00001  GOP     VAR     BYTE BANKA SYSTEM       
                            ' Gen Op Parameter
  00000001            00100 GOP                             EQU     RAM_START + 001h
                      00101 ; C:\PROGRAM FILES (X86)\PBP3_1\PBPPIC18.RAM    00012   A00002  R0      VAR     WORD BANKA SYSTEM       
                            ' System Register
  00000002            00102 R0                              EQU     RAM_START + 002h
                      00103 ; C:\PROGRAM FILES (X86)\PBP3_1\PBPPIC18.RAM    00013   A00004  R1      VAR     WORD BANKA SYSTEM       
                            ' System Register
  00000004            00104 R1                              EQU     RAM_START + 004h
                      00105 ; C:\PROGRAM FILES (X86)\PBP3_1\PBPPIC18.RAM    00014   A00006  R2      VAR     WORD BANKA SYSTEM       
                            ' System Register
  00000006            00106 R2                              EQU     RAM_START + 006h
                      00107 ; C:\PROGRAM FILES (X86)\PBP3_1\PBPPIC18.RAM    00015   A00008  R3      VAR     WORD BANKA SYSTEM       
                            ' System Register
  00000008            00108 R3                              EQU     RAM_START + 008h
                      00109 ; C:\PROGRAM FILES (X86)\PBP3_1\PBPPIC18.RAM    00016   A0000A  R4      VAR     WORD BANKA SYSTEM       
                            ' System Register
  0000000A            00110 R4                              EQU     RAM_START + 00Ah
                      00111 ; C:\PROGRAM FILES (X86)\PBP3_1\PBPPIC18.RAM    00017   A0000C  R5      VAR     WORD BANKA SYSTEM       
                            ' System Register
  0000000C            00112 R5                              EQU     RAM_START + 00Ch
                      00113 ; C:\PROGRAM FILES (X86)\PBP3_1\PBPPIC18.RAM    00018   A0000E  R6      VAR     WORD BANKA SYSTEM       
                            ' System Register
  0000000E            00114 R6                              EQU     RAM_START + 00Eh
                      00115 ; C:\PROGRAM FILES (X86)\PBP3_1\PBPPIC18.RAM    00019   A00010  R7      VAR     WORD BANKA SYSTEM       
                            ' System Register
  00000010            00116 R7                              EQU     RAM_START + 010h
                      00117 ; C:\PROGRAM FILES (X86)\PBP3_1\PBPPIC18.RAM    00020   A00012  R8      VAR     WORD BANKA SYSTEM       
                            ' System Register
  00000012            00118 R8                              EQU     RAM_START + 012h
                      00119 ; C:\USERS\CONNO\DOCUMENTS\4TH YEAR\PROJECT\PIC CODE\TX_CODE_RESTRUCTURED.PBP   00001   A00014  '*******
                            *********************************************************
  00000014            00120 T1                              EQU     RAM_START + 014h
                      00121 ; C:\PROGRAM FILES (X86)\PBP3_1\PBPPIC18.RAM    00023   A00016  RM1     VAR     BYTE BANKA SYSTEM       
                            ' Pin 1 Mask
  00000016            00122 RM1                             EQU     RAM_START + 016h
                      00123 ; C:\PROGRAM FILES (X86)\PBP3_1\PBPPIC18.RAM    00026   A00017  RM2     VAR     BYTE BANKA SYSTEM       
                            ' Pin 2 Mask
  00000017            00124 RM2                             EQU     RAM_START + 017h
                      00125 ; C:\PROGRAM FILES (X86)\PBP3_1\PBPPIC18.RAM    00021   A00018  RR1     VAR     BYTE BANKA SYSTEM       
                            ' Pin 1 Register
  00000018            00126 RR1                             EQU     RAM_START + 018h
                      00127 ; C:\PROGRAM FILES (X86)\PBP3_1\PBPPIC18.RAM    00024   A00019  RR2     VAR     BYTE BANKA SYSTEM       
                            ' Pin 2 Register
  00000019            00128 RR2                             EQU     RAM_START + 019h
                      00129 ; C:\PROGRAM FILES (X86)\PBP3_1\PBPPIC18.RAM    00022   A0001A  RS1     VAR     BYTE BANKA SYSTEM       
                            ' Pin 1 Bank
  0000001A            00130 RS1                             EQU     RAM_START + 01Ah
                      00131 ; C:\PROGRAM FILES (X86)\PBP3_1\PBPPIC18.RAM    00025   A0001B  RS2     VAR     BYTE BANKA SYSTEM       
                            ' Pin 2 Bank
MPASM 5.87          TX_CODE_RESTRUCTURED.ASM   5-23-2023  21:17:45         PAGE  4


LOC  OBJECT CODE     LINE SOURCE TEXT
  VALUE

  0000001B            00132 RS2                             EQU     RAM_START + 01Bh
                      00133 ; C:\USERS\CONNO\DOCUMENTS\4TH YEAR\PROJECT\PIC CODE\TX_CODE_RESTRUCTURED.PBP   00021   A0001C      A va
                            r word
  0000001C            00134 _A                              EQU     RAM_START + 01Ch
                      00135 ; C:\USERS\CONNO\DOCUMENTS\4TH YEAR\PROJECT\PIC CODE\TX_CODE_RESTRUCTURED.PBP   00022   A0001E      B va
                            r word
  0000001E            00136 _B                              EQU     RAM_START + 01Eh
                      00137 ; C:\USERS\CONNO\DOCUMENTS\4TH YEAR\PROJECT\PIC CODE\TX_CODE_RESTRUCTURED.PBP   00028   A00020      ligh
                            t var word
  00000020            00138 _light                          EQU     RAM_START + 020h
                      00139 ; C:\USERS\CONNO\DOCUMENTS\4TH YEAR\PROJECT\PIC CODE\TX_CODE_RESTRUCTURED.PBP   00023   A00022      temp
                             var word
  00000022            00140 _temp                           EQU     RAM_START + 022h
                      00141 ; C:\USERS\CONNO\DOCUMENTS\4TH YEAR\PROJECT\PIC CODE\TX_CODE_RESTRUCTURED.PBP   00032   A00024      time
                             var word
  00000024            00142 _time                           EQU     RAM_START + 024h
                      00143 ; C:\USERS\CONNO\DOCUMENTS\4TH YEAR\PROJECT\PIC CODE\TX_CODE_RESTRUCTURED.PBP   00031   A00026      volt
                            s var word
  00000026            00144 _volts                          EQU     RAM_START + 026h
                      00145 ; C:\USERS\CONNO\DOCUMENTS\4TH YEAR\PROJECT\PIC CODE\TX_CODE_RESTRUCTURED.PBP   00033   A00028      coun
                            ting var byte
  00000028            00146 _counting                       EQU     RAM_START + 028h
                      00147 ; C:\USERS\CONNO\DOCUMENTS\4TH YEAR\PROJECT\PIC CODE\TX_CODE_RESTRUCTURED.PBP   00029   A00029      ligh
                            tA var byte
  00000029            00148 _lightA                         EQU     RAM_START + 029h
                      00149 ; C:\USERS\CONNO\DOCUMENTS\4TH YEAR\PROJECT\PIC CODE\TX_CODE_RESTRUCTURED.PBP   00030   A0002A      ligh
                            tB var byte
  0000002A            00150 _lightB                         EQU     RAM_START + 02Ah
                      00151 ; C:\USERS\CONNO\DOCUMENTS\4TH YEAR\PROJECT\PIC CODE\TX_CODE_RESTRUCTURED.PBP   00024   A0002B      temp
                            A var byte
  0000002B            00152 _tempA                          EQU     RAM_START + 02Bh
                      00153 ; C:\USERS\CONNO\DOCUMENTS\4TH YEAR\PROJECT\PIC CODE\TX_CODE_RESTRUCTURED.PBP   00025   A0002C      temp
                            B var byte
  0000002C            00154 _tempB                          EQU     RAM_START + 02Ch
                      00155 ; C:\USERS\CONNO\DOCUMENTS\4TH YEAR\PROJECT\PIC CODE\TX_CODE_RESTRUCTURED.PBP   00026   A0002D      volt
                            sA var byte
  0000002D            00156 _voltsA                         EQU     RAM_START + 02Dh
                      00157 ; C:\USERS\CONNO\DOCUMENTS\4TH YEAR\PROJECT\PIC CODE\TX_CODE_RESTRUCTURED.PBP   00027   A0002E      volt
                            sB var byte
  0000002E            00158 _voltsB                         EQU     RAM_START + 02Eh
                      00159 ; C:\PROGRAM FILES (X86)\PBP3_1\DEVICES\PIC18F2550.PBPINC       00289   PORTL   VAR     PORTB
  00000F81            00160 _PORTL                          EQU      PORTB
                      00161 ; C:\PROGRAM FILES (X86)\PBP3_1\DEVICES\PIC18F2550.PBPINC       00290   PORTH   VAR     PORTC
  00000F82            00162 _PORTH                          EQU      PORTC
                      00163 ; C:\PROGRAM FILES (X86)\PBP3_1\DEVICES\PIC18F2550.PBPINC       00291   TRISL   VAR     TRISB
  00000F93            00164 _TRISL                          EQU      TRISB
                      00165 ; C:\PROGRAM FILES (X86)\PBP3_1\DEVICES\PIC18F2550.PBPINC       00292   TRISH   VAR     TRISC
  00000F94            00166 _TRISH                          EQU      TRISC
                      00167 #define _led                    _PORTB??0
                      00168 #define _tilt                   _PORTB??1
                      00169 #define _Piezo                  _PORTB??2
                      00170 #define _arduino                _PORTB??3
                      00171 #define _light_signal           _PORTA??0
MPASM 5.87          TX_CODE_RESTRUCTURED.ASM   5-23-2023  21:17:45         PAGE  5


LOC  OBJECT CODE     LINE SOURCE TEXT
  VALUE

                      00172 #define _temp_signal            _PORTA??1
                      00173 #define _battery_signal         _PORTA??2
                      00174 #define _PORTB??0                PORTB, 000h
                      00175 #define _PORTB??1                PORTB, 001h
                      00176 #define _PORTB??2                PORTB, 002h
                      00177 #define _PORTB??3                PORTB, 003h
                      00178 #define _PORTA??0                PORTA, 000h
                      00179 #define _PORTA??1                PORTA, 001h
                      00180 #define _PORTA??2                PORTA, 002h
                      00181 
                      00182 ; Constants.
  00000400            00183 _USBMEMORYADDRESS               EQU     00400h
  0000003C            00184 _cycles                         EQU     0003Ch
                      00185 
                      00186 ; EEPROM data.
                      00187 
                      00188 
                      00189         INCLUDE "TX_CODE_RESTRUCTURED.MAC"
                      00001 
                      00331         LIST
                      00190         INCLUDE "C:\PROGRAM FILES (X86)\PBP3_1\PBPPIC18.LIB"
                      00001 ;******************************************************************
                      00002 ;*  PBPPIC18.LIB                                                  *
                      00003 ;*                                                                *
                      00004 ;*  By        : Leonard Zerman, Jeff Schmoyer, Darrel Taylor,     *
                      00005 ;*              Charles Leo                                       *
                      00006 ;*  Notice    : Copyright (c) 2017 microEngineering Labs, Inc.    *
                      00007 ;*              All Rights Reserved                               *
                      00008 ;*  Date      : 03/27/2017                                        *
                      00009 ;*  Version   : 3.1.0                                             *
                      00010 ;*  Notes     :                                                   *
                      00011 ;******************************************************************
                      00063   LIST
                      00064 ; Oscillator is 4MHz
                      01228   LIST
000000                01229     ORG RESET_ORG               ; Reset vector at 0
                      01238   LIST
000000 EFC7 F000      01239         goto    INIT            ; Finish initialization
                      04342   LIST
000004 6E08           04343 SEROUT  movwf   R3              ; Data to send
000006 C01A FFEA      04344         movff   RS1, FSR0H      ; Point to bank (PORT)
00000A C01A FFE2      04345         movff   RS1, FSR1H      ; Point to bank (TRIS)
00000E 5018           04346         movf    RR1, W          ; Point to PORT
000010 6EE9           04347         movwf   FSR0L
000012 0F12           04348         addlw   12h             ; Point to TRIS
000014 6EE1           04349         movwf   FSR1L
000016 0E09           04350         movlw   9               ; 1 start bit + 8 data bits
000018 6E09           04351         movwf   R3 + 1
00001A 90D8           04352         bcf     STATUS, C       ; Start bit low
00001C D807           04353 seroutloop rcall seroutbit      ; 16+ (20) Send a bit
00001E 3208           04354         rrcf    R3, F           ; 1 Move to next bit
000020 2E09           04355         decfsz  R3 + 1, F       ; 1 / 2 Do next bit, if any
000022 D7FC           04356         bra     seroutloop      ; 2 / 0
MPASM 5.87          TX_CODE_RESTRUCTURED.ASM   5-23-2023  21:17:45         PAGE  6


LOC  OBJECT CODE     LINE SOURCE TEXT
  VALUE

000024 80D8           04357         bsf     STATUS, C       ; 1 Stop bit high
000026 D802           04358         rcall   seroutbit       ; 16+ Send stop bit (need cycles)
                      04359       ifdef CHAR_PACING
                      04360         movlw   (CHAR_PACING) >> 8
                      04361         movwf   R0 + 1
                      04362         movlw   low (CHAR_PACING)
                      04363         call    PAUSEUSL        ; Delay for character pacing
                      04364       endif
000028 EFC4 F000      04365         goto    DUNN
                      04366 
00002C A601           04367 seroutbit btfss GOP, 3          ; 1 / 2 (16+) Check for TRIS mode
00002E D00B           04368         bra     seroutnorm      ; 2 / 0 Go handle normal mode
                      04369 
000030 50EF           04370         movf    INDF0, W        ; 1 Get PORT data
000032 1016           04371         iorwf   RM1, W          ; 1 Set bit on
000034 A401           04372         btfss   GOP, 2          ; 1 / 2 Bit matches invert mode
000036 1816           04373         xorwf   RM1, W          ; 1 / 0 Set bit off
000038 6EEF           04374         movwf   INDF0           ; 1 Write it out
00003A 50E7           04375         movf    INDF1, W        ; 1 Get TRIS data
00003C 1016           04376         iorwf   RM1, W          ; 1 Make bit an input
00003E A0D8           04377         btfss   STATUS, C       ; 1 / 2 Bit direction matches bit
000040 1816           04378         xorwf   RM1, W          ; 1 / 0 Make bit an output
000042 6EE7           04379         movwf   INDF1           ; 1 Write it out
000044 D00A           04380         bra     serdelay        ; 2 + 2 Wait remainder of bit time
                      04381 
000046 50EF           04382 seroutnorm movf  INDF0, W       ; 1 Get PORT data
000048 1016           04383         iorwf   RM1, W          ; 1 Set bit on
00004A A0D8           04384         btfss   STATUS, C       ; 1 / 2 Skip if bit should be on
00004C 1816           04385         xorwf   RM1, W          ; 1 / 0 Set bit off
00004E B401           04386         btfsc   GOP, 2          ; 1 / 2 Invert if 'N' mode
000050 1816           04387         xorwf   RM1, W          ; 1 / 0 Flip for invert
000052 6EEF           04388         movwf   INDF0           ; 1 Write it out
000054 1C16           04389         comf    RM1, W          ; 1 Get complemented bit mask to W
000056 16E7           04390         andwf   INDF1, F        ; 1 Clear TRIS bit to set output
000058 D000           04391         bra     serdelay        ; 2 + 2 Wait remainder of bit time
                      04415   LIST
                      04416       ifdef SERINX_USED
                      04417 sersdelay bsf   GOP, 6          ; Mark short delay
                      04418       endif
00005A 3401           04419 serdelay rlcf   GOP, W          ; 1 (14 + 20) Get baud value x 2
00005C 0B06           04420         andlw   06h             ; 1 Mask to our bits
00005E 0F7A           04421         addlw   low (sertable)  ; 1 Point to table
000060 6EF6           04422         movwf   TBLPTRL         ; 1 Set up table pointer low
000062 6AF7           04423         clrf    TBLPTRH         ; 1 Zero table pointer high
000064 0E00           04424         movlw   high (sertable) ; 1 Set table pointer high
000066 22F7           04425         addwfc  TBLPTRH, F      ; 1
000068 6AF8           04426         clrf    TBLPTRU         ; 1 Zero table pointer upper
00006A 0009           04427         tblrd   *+              ; 2 Get the high value
00006C 50F5           04428         movf    TABLAT, W       ; 1 Move it for PAUSEUS
00006E 6E03           04429         movwf   R0 + 1          ; 1
000070 0008           04430         tblrd   *               ; 2 Get the low value
000072 50F5           04431         movf    TABLAT, W       ; 1 Move it to W
                      04432       ifndef SERINX_USED
MPASM 5.87          TX_CODE_RESTRUCTURED.ASM   5-23-2023  21:17:45         PAGE  7


LOC  OBJECT CODE     LINE SOURCE TEXT
  VALUE

000074 0000           04433         nop                     ; 1
000076 EF4F F000      04434         goto    PAUSEUSL        ; -2 (PAUSEUSL gives you 2 less than you ask for)
                      04435       else
                      04436         btfss   GOP, 6          ; 1
                      04437         goto    PAUSEUSL        ; -2 (PAUSEUSL gives you 2 less than you ask for)
                      04438         bcf     GOP, 6          ; Clear short delay mark
                      04439         bcf     STATUS, C       ; Divide time by 4
                      04440         rrcf    R0 + 1, F
                      04441         rrcf    WREG, W
                      04442         bcf     STATUS, C
                      04443         rrcf    R0 + 1, F
                      04444         rrcf    WREG, W
                      04445         goto    PAUSEUSL        ; Do 1/4 delay
                      04446       endif
                      04447 
00007A 7F01           04448 sertable db     high (SDELAY_2400), low (SDELAY_2400)
00007C 1F03           04449         db      high (SDELAY_1200), low (SDELAY_1200)
00007E 4600           04450         db      high (SDELAY_9600), low (SDELAY_9600)
000080 E30C           04451         db      high (SDELAY_300), low (SDELAY_300)
                      06611   LIST
000082 6A05           06612 PAUSE   clrf    R1 + 1
000084 6E04           06613 PAUSEL  movwf   R1
000086 6AE8           06614 pauseloop clrf  WREG            ; 1 (8) Clear W for subtracts
000088 0604           06615         decf    R1, F           ; 1
00008A 5A05           06616         subwfb  R1 + 1, F       ; 1
00008C A0D8           06617         btfss   STATUS, C       ; 2
00008E EFC4 F000      06618         goto    DUNN
000092 0E03           06619         movlw   (PAUSE_DELAY) >> 8      ; 1
000094 6E03           06620         movwf   R0 + 1          ; 1
000096 0EE0           06621         movlw   low (PAUSE_DELAY)       ; 1
000098 D802           06622         rcall   PAUSEUSL        ; -2 (PAUSEUSL gives you 2 less than you ask for)
00009A D7F5           06623         bra     pauseloop       ; 2
                      06667   LIST
00009C 6A03           06668 PAUSEUS clrf    R0 + 1          ; 1
00009E 0FE9           06669 PAUSEUSL addlw  -23             ; 1 Subtract overhead
0000A0 6E02           06670         movwf   R0              ; 1
0000A2 0EFC           06671         movlw   -4              ; 1
0000A4 E305           06672         bnc     pauseush        ; 1 / 2
0000A6 0000           06673         nop                     ; 1
                      06674 pauseusloop CLRWDT?NOP          ; 1
                          M     ifndef NO_CLRWDT
0000A8 0004               M         clrwdt
                          M     else
                          M         nop
                          M     endif
0000AA 2602           06675         addwf   R0, F           ; 1
0000AC E2FD           06676         bc      pauseusloop     ; 1 / 2
0000AE 0000           06677         nop                     ; 1
0000B0 2602           06678 pauseush addwf  R0, F           ; 1
0000B2 0603           06679         decf    R0 + 1, F       ; 1
0000B4 E2F9           06680         bc      pauseusloop     ; 1 / 2
0000B6 B002           06681         btfsc   R0, 0           ; 1 / 2
0000B8 D000           06682         bra     $ + 2           ; 2 / 0
MPASM 5.87          TX_CODE_RESTRUCTURED.ASM   5-23-2023  21:17:45         PAGE  8


LOC  OBJECT CODE     LINE SOURCE TEXT
  VALUE

0000BA A202           06683         btfss   R0, 1           ; 1 / 2
0000BC D002           06684         bra     pauseusdone     ; 2 / 0
0000BE D000           06685         bra     $ + 2           ; 0 / 2
0000C0 0000           06686         nop                     ; 0 / 1
0000C2 0012           06687 pauseusdone return              ; 2 + 3 (call + setup)
                      07060   LIST
0000C4 6A09           07061 SLEEPS  clrf    R3 + 1
0000C6 0F01           07062 SLEEPL  addlw   1               ; Add one to requested time
0000C8 6E08           07063         movwf   R3
0000CA 6AE8           07064         clrf    WREG            ; For adds and subtracts
0000CC 2209           07065         addwfc  R3 + 1, F       ; Carry has last overflow
0000CE 3209           07066         rrcf    R3 + 1, F       ; Change seconds into 2 second WDT timeouts
0000D0 3208           07067         rrcf    R3, F
                      07068 ;       clrf    WREG            ; Setup for countdown (still clear from above)
0000D2 0608           07069 sleeploop decf  R3, F           ; Count down sleep time
0000D4 5A09           07070         subwfb  R3 + 1, F
0000D6 A0D8           07071         btfss   STATUS, C
0000D8 EFC4 F000      07072         goto    DUNN            ; Done
0000DC 0003           07073         sleep                   ; You're entering a deep sleep...
0000DE D7F9           07074         bra     sleeploop       ; Check for more sleep
                      07449   LIST
0000E0 90D8           07450 shiftrloop bcf  STATUS, C       ; Shift in 0 bits
0000E2 3203           07451         rrcf    R0 + 1, F       ; Shift right once
0000E4 3202           07452         rrcf    R0, F
0000E6 0FFF           07453 SHIFTR  addlw   -1
0000E8 E2FB           07454         bc      shiftrloop      ; Done?
0000EA 5002           07455         movf    R0, W           ; Move low part of result to W
0000EC EFC4 F000      07456         goto    DUNN
                      07657   LIST
0000F0 6E04           07658 CMPLE   movwf   R1
0000F2 0E06           07659         movlw   6               ; Mask for < =
0000F4 D003           07660         bra     CMP
                      07690   LIST
0000F6 6E04           07691 CMPLT   movwf   R1
0000F8 0E04           07692         movlw   4               ; Mask for <
0000FA D000           07693         bra     CMP
                      07742   LIST
0000FC 6E0A           07743 CMP     movwf   R4              ; Save compare state
0000FE 5005           07744         movf    R1 + 1, W       ; Flags = MSB(R0) - MSB(R1)
000100 5C03           07745         subwf   R0 + 1, W
000102 E102           07746         bnz     cmpnoteq        ; If unequal then done
000104 5004           07747         movf    R1, W           ; Flags = LSB(R0) - LSB(R1)
000106 5C02           07748         subwf   R0, W
000108 0E04           07749 cmpnoteq movlw  4               ; W = 4 if R0 < R1
00010A B0D8           07750         btfsc   STATUS, C
00010C 0E01           07751         movlw   1               ; W = 1 if R0 > R1
00010E B4D8           07752         btfsc   STATUS, Z
000110 0E02           07753         movlw   2               ; W = 2 if R0 == R1
000112 140A           07754         andwf   R4, W           ; Mask for compare state
000114 A4D8           07755         btfss   STATUS, Z
000116 0EFF           07756         movlw   -1
000118 EFC4 F000      07757         goto    DUNN
                      07967   LIST
MPASM 5.87          TX_CODE_RESTRUCTURED.ASM   5-23-2023  21:17:45         PAGE  9


LOC  OBJECT CODE     LINE SOURCE TEXT
  VALUE

00011C 6A07           07968 DIV     clrf    R2 + 1
00011E 6A06           07969         clrf    R2
                      07970 
000120 0E10           07971 DIV32DIV movlw   16
000122 6E08           07972         movwf   R3
                      07973 
000124 3403           07974 divloop rlcf    R0 + 1, W
000126 3606           07975         rlcf    R2, F
000128 3607           07976         rlcf    R2 + 1, F
00012A 5004           07977         movf    R1, W
00012C 5E06           07978         subwf   R2, F
00012E 5005           07979         movf    R1 + 1, W
000130 5A07           07980         subwfb  R2 + 1, F
                      07981 
000132 E205           07982         bc      divok
000134 5004           07983         movf    R1, W
000136 2606           07984         addwf   R2, F
000138 5005           07985         movf    R1 + 1, W
00013A 2207           07986         addwfc  R2 + 1, F
                      07987 
00013C 90D8           07988         bcf     STATUS, C
                      07989 
00013E 3602           07990 divok   rlcf    R0, F
000140 3603           07991         rlcf    R0 + 1, F
                      07992 
000142 2E08           07993         decfsz  R3, F
000144 D7EF           07994         bra     divloop
000146 5002           07995         movf    R0, W           ; Get low byte to W
000148 EFC4 F000      07996         goto    DUNN
                      08013   LIST
00014C 5004           08014 MUL     movf    R1, W
00014E 0208           08015         mulwf   R3              ; R1 * R3 = PRODHL
000150 CFF3 F006      08016         movff   PRODL, R2
000154 CFF4 F007      08017         movff   PRODH, R2 + 1
                      08018 
000158 5005           08019         movf    R1 + 1, W
00015A 0209           08020         mulwf   R3 + 1          ; R1 + 1 * R3 + 1 = PRODHL
00015C CFF3 F002      08021         movff   PRODL, R0
000160 CFF4 F003      08022         movff   PRODH, R0 + 1
                      08023 
                      08024 ;       movf    R1 + 1, W       ; W still has R1 + 1 from above
000164 0208           08025         mulwf   R3              ; R1 + 1 * R3 = PRODHL
000166 50F3           08026         movf    PRODL, W        ; Add cross products
000168 2607           08027         addwf   R2 + 1, F
00016A 50F4           08028         movf    PRODH, W
00016C 2202           08029         addwfc  R0, F
00016E 6AE8           08030         clrf    WREG
000170 2203           08031         addwfc  R0 + 1, F
                      08032 
000172 5004           08033         movf    R1, W
000174 0209           08034         mulwf   R3 + 1          ; R1 * R3 + 1 = PRODHL
000176 50F3           08035         movf    PRODL, W        ; Add cross products
000178 2607           08036         addwf   R2 + 1, F
MPASM 5.87          TX_CODE_RESTRUCTURED.ASM   5-23-2023  21:17:45         PAGE 10


LOC  OBJECT CODE     LINE SOURCE TEXT
  VALUE

00017A 50F4           08037         movf    PRODH, W
00017C 2202           08038         addwfc  R0, F
00017E 6AE8           08039         clrf    WREG
000180 2203           08040         addwfc  R0 + 1, F
                      08041 
000182 5006           08042         movf    R2, W           ; Get low byte to W
000184 EFC4 F000      08043         goto    DUNN
                      08079   LIST
000188 0100           08080 DUNN    movlb   0               ; 1 Reset banks to 0
                      08081 DUNN5   CLRWDT?NOP              ; 1 Hit Watchdog timer
                          M     ifndef NO_CLRWDT
00018A 0004               M         clrwdt
                          M     else
                          M         nop
                          M     endif
00018C 0012           08082         return                  ; 2 Done
                      08095   LIST
00018E                08096 INIT
                      08132   LIST
00018E                08133 main
                      00191 
                      00192 
                      00193 ; C:\PROGRAM FILES (X86)\PBP3_1\DEVICES\PIC18F2550.PBPINC       00036   #HEADER
                      00194 ; C:\PROGRAM FILES (X86)\PBP3_1\DEVICES\PIC18F2550.PBPINC       00061   #CONFIG
                      00195 ; C:\PROGRAM FILES (X86)\PBP3_1\DEVICES\PIC18F2550.PBPINC       00270   BANKA   $0000, $005F
                      00196 ; C:\PROGRAM FILES (X86)\PBP3_1\DEVICES\PIC18F2550.PBPINC       00271   BANK0   $0060, $00FF
                      00197 ; C:\PROGRAM FILES (X86)\PBP3_1\DEVICES\PIC18F2550.PBPINC       00272   BANK1   $0100, $01FF
                      00198 ; C:\PROGRAM FILES (X86)\PBP3_1\DEVICES\PIC18F2550.PBPINC       00273   BANK2   $0200, $02FF
                      00199 ; C:\PROGRAM FILES (X86)\PBP3_1\DEVICES\PIC18F2550.PBPINC       00274   BANK3   $0300, $03FF
                      00200 ; C:\PROGRAM FILES (X86)\PBP3_1\DEVICES\PIC18F2550.PBPINC       00275   BANK4   $0400, $04FF
                      00201 ; C:\PROGRAM FILES (X86)\PBP3_1\DEVICES\PIC18F2550.PBPINC       00276   BANK5   $0500, $05FF
                      00202 ; C:\PROGRAM FILES (X86)\PBP3_1\DEVICES\PIC18F2550.PBPINC       00277   BANK6   $0600, $06FF
                      00203 ; C:\PROGRAM FILES (X86)\PBP3_1\DEVICES\PIC18F2550.PBPINC       00278   BANK7   $0700, $07FF
                      00204 ; C:\PROGRAM FILES (X86)\PBP3_1\DEVICES\PIC18F2550.PBPINC       00284       INCLUDE "PBPPI18L.RAM"
                      00205 ; C:\PROGRAM FILES (X86)\PBP3_1\DEVICES\PIC18F2550.PBPINC       00285   #ELSE
                      00206 ; C:\PROGRAM FILES (X86)\PBP3_1\DEVICES\PIC18F2550.PBPINC       00286       LIBRARY  "PBPPIC18"
                      00207 
                      00208 ; C:\PROGRAM FILES (X86)\PBP3_1\DEVICES\PIC18F2550.PBPINC       00287       INCLUDE "PBPPIC18.RAM"
                      00209 ; C:\PROGRAM FILES (X86)\PBP3_1\DEVICES\PIC18F2550.PBPINC       00288   #ENDIF
                      00210 ; C:\PROGRAM FILES (X86)\PBP3_1\DEVICES\PIC18F2550.PBPINC       00293   USBMEMORYADDRESS Con    $400    
                            ' USB RAM starts here
                      00211 ; C:\PROGRAM FILES (X86)\PBP3_1\DEVICES\PIC18F2550.PBPINC       00297   #HEADER
                      00212 ; C:\USERS\CONNO\DOCUMENTS\4TH YEAR\PROJECT\PIC CODE\TX_CODE_RESTRUCTURED.PBP   00011   DEFINE OSC 4
                      00213 
                      00214 ; C:\USERS\CONNO\DOCUMENTS\4TH YEAR\PROJECT\PIC CODE\TX_CODE_RESTRUCTURED.PBP   00012   OSCCON=%01100010
                      00215         MOVE?CB 062h, OSCCON
                          M         CHK?RP  OSCCON
                          M     if (((OSCCON) & 8000h) != PREV_ALT)
                          M       if ((OSCCON) & 8000h)
                          M         bsf     WDTCON, ADSHR
                          M       else
                          M         bcf     WDTCON, ADSHR
                          M       endif
MPASM 5.87          TX_CODE_RESTRUCTURED.ASM   5-23-2023  21:17:45         PAGE 11


LOC  OBJECT CODE     LINE SOURCE TEXT
  VALUE

                          M PREV_ALT = (OSCCON) & 8000h
                          M     endif
                          M     if ((((OSCCON) & 0fffh) > BANKA_END) & (((OSCCON) & 0fffh) < (0f01h + BANKA_END)))
                          M       if (((OSCCON) & 0f00h) != (PREV_BANK << 8))
                          M         movlb   high (OSCCON)
                          M PREV_BANK = high (OSCCON)
                          M       endif
                          M     endif
                          M     if (low (062h) == 0)
                          M         clrf    OSCCON
                          M     else
                          M       if (low (062h) == 255)
                          M         setf    OSCCON
                          M       else
00018E 0E62               M         movlw   low (062h)
000190 6ED3               M         movwf   OSCCON
                          M       endif
                          M     endif
                      00216 
                      00217 ; C:\USERS\CONNO\DOCUMENTS\4TH YEAR\PROJECT\PIC CODE\TX_CODE_RESTRUCTURED.PBP   00013   ADCON1=%00001100
                      00218         MOVE?CB 00Ch, ADCON1
                          M         CHK?RP  ADCON1
                          M     if (((ADCON1) & 8000h) != PREV_ALT)
                          M       if ((ADCON1) & 8000h)
                          M         bsf     WDTCON, ADSHR
                          M       else
                          M         bcf     WDTCON, ADSHR
                          M       endif
                          M PREV_ALT = (ADCON1) & 8000h
                          M     endif
                          M     if ((((ADCON1) & 0fffh) > BANKA_END) & (((ADCON1) & 0fffh) < (0f01h + BANKA_END)))
                          M       if (((ADCON1) & 0f00h) != (PREV_BANK << 8))
                          M         movlb   high (ADCON1)
                          M PREV_BANK = high (ADCON1)
                          M       endif
                          M     endif
                          M     if (low (00Ch) == 0)
                          M         clrf    ADCON1
                          M     else
                          M       if (low (00Ch) == 255)
                          M         setf    ADCON1
                          M       else
000192 0E0C               M         movlw   low (00Ch)
000194 6EC1               M         movwf   ADCON1
                          M       endif
                          M     endif
                      00219 
                      00220 ; C:\USERS\CONNO\DOCUMENTS\4TH YEAR\PROJECT\PIC CODE\TX_CODE_RESTRUCTURED.PBP   00014   ADCON2=%10010000
                      00221         MOVE?CB 090h, ADCON2
                          M         CHK?RP  ADCON2
                          M     if (((ADCON2) & 8000h) != PREV_ALT)
                          M       if ((ADCON2) & 8000h)
                          M         bsf     WDTCON, ADSHR
MPASM 5.87          TX_CODE_RESTRUCTURED.ASM   5-23-2023  21:17:45         PAGE 12


LOC  OBJECT CODE     LINE SOURCE TEXT
  VALUE

                          M       else
                          M         bcf     WDTCON, ADSHR
                          M       endif
                          M PREV_ALT = (ADCON2) & 8000h
                          M     endif
                          M     if ((((ADCON2) & 0fffh) > BANKA_END) & (((ADCON2) & 0fffh) < (0f01h + BANKA_END)))
                          M       if (((ADCON2) & 0f00h) != (PREV_BANK << 8))
                          M         movlb   high (ADCON2)
                          M PREV_BANK = high (ADCON2)
                          M       endif
                          M     endif
                          M     if (low (090h) == 0)
                          M         clrf    ADCON2
                          M     else
                          M       if (low (090h) == 255)
                          M         setf    ADCON2
                          M       else
000196 0E90               M         movlw   low (090h)
000198 6EC0               M         movwf   ADCON2
                          M       endif
                          M     endif
                      00222 
                      00223 ; C:\USERS\CONNO\DOCUMENTS\4TH YEAR\PROJECT\PIC CODE\TX_CODE_RESTRUCTURED.PBP   00015   CVRCON=%00000000
                      00224         MOVE?CB 000h, CVRCON
                          M         CHK?RP  CVRCON
                          M     if (((CVRCON) & 8000h) != PREV_ALT)
                          M       if ((CVRCON) & 8000h)
                          M         bsf     WDTCON, ADSHR
                          M       else
                          M         bcf     WDTCON, ADSHR
                          M       endif
                          M PREV_ALT = (CVRCON) & 8000h
                          M     endif
                          M     if ((((CVRCON) & 0fffh) > BANKA_END) & (((CVRCON) & 0fffh) < (0f01h + BANKA_END)))
                          M       if (((CVRCON) & 0f00h) != (PREV_BANK << 8))
                          M         movlb   high (CVRCON)
                          M PREV_BANK = high (CVRCON)
                          M       endif
                          M     endif
                          M     if (low (000h) == 0)
00019A 6AB5               M         clrf    CVRCON
                          M     else
                          M       if (low (000h) == 255)
                          M         setf    CVRCON
                          M       else
                          M         movlw   low (000h)
                          M         movwf   CVRCON
                          M       endif
                          M     endif
                      00225 
                      00226 ; C:\USERS\CONNO\DOCUMENTS\4TH YEAR\PROJECT\PIC CODE\TX_CODE_RESTRUCTURED.PBP   00016   HLVDCON=%0000000
                            0
                      00227         MOVE?CB 000h, HLVDCON
MPASM 5.87          TX_CODE_RESTRUCTURED.ASM   5-23-2023  21:17:45         PAGE 13


LOC  OBJECT CODE     LINE SOURCE TEXT
  VALUE

                          M         CHK?RP  HLVDCON
                          M     if (((HLVDCON) & 8000h) != PREV_ALT)
                          M       if ((HLVDCON) & 8000h)
                          M         bsf     WDTCON, ADSHR
                          M       else
                          M         bcf     WDTCON, ADSHR
                          M       endif
                          M PREV_ALT = (HLVDCON) & 8000h
                          M     endif
                          M     if ((((HLVDCON) & 0fffh) > BANKA_END) & (((HLVDCON) & 0fffh) < (0f01h + BANKA_END)))
                          M       if (((HLVDCON) & 0f00h) != (PREV_BANK << 8))
                          M         movlb   high (HLVDCON)
                          M PREV_BANK = high (HLVDCON)
                          M       endif
                          M     endif
                          M     if (low (000h) == 0)
00019C 6AD2               M         clrf    HLVDCON
                          M     else
                          M       if (low (000h) == 255)
                          M         setf    HLVDCON
                          M       else
                          M         movlw   low (000h)
                          M         movwf   HLVDCON
                          M       endif
                          M     endif
                      00228 
                      00229 ; C:\USERS\CONNO\DOCUMENTS\4TH YEAR\PROJECT\PIC CODE\TX_CODE_RESTRUCTURED.PBP   00017   init:
                      00230 
                      00231         LABEL?L _init   
                          M         RST?RP
                          M     if (PREV_ALT != 0)
                          M         bcf     WDTCON, ADSHR
                          M PREV_ALT = 0
                          M     endif
                          M     if (PREV_BANK != 0)
                          M         movlb   0
                          M PREV_BANK = 0
                          M     endif
                          M     ifdef PM_USED
                          M         LALL
                          M _init
                          M         XALL
                          M     else
00019E                    M _init
                          M     endif
                      00232 
                      00233 ; C:\USERS\CONNO\DOCUMENTS\4TH YEAR\PROJECT\PIC CODE\TX_CODE_RESTRUCTURED.PBP   00018       TRISB=%00000
                            110
                      00234         MOVE?CB 006h, TRISB
                          M         CHK?RP  TRISB
                          M     if (((TRISB) & 8000h) != PREV_ALT)
                          M       if ((TRISB) & 8000h)
                          M         bsf     WDTCON, ADSHR
MPASM 5.87          TX_CODE_RESTRUCTURED.ASM   5-23-2023  21:17:45         PAGE 14


LOC  OBJECT CODE     LINE SOURCE TEXT
  VALUE

                          M       else
                          M         bcf     WDTCON, ADSHR
                          M       endif
                          M PREV_ALT = (TRISB) & 8000h
                          M     endif
                          M     if ((((TRISB) & 0fffh) > BANKA_END) & (((TRISB) & 0fffh) < (0f01h + BANKA_END)))
                          M       if (((TRISB) & 0f00h) != (PREV_BANK << 8))
                          M         movlb   high (TRISB)
                          M PREV_BANK = high (TRISB)
                          M       endif
                          M     endif
                          M     if (low (006h) == 0)
                          M         clrf    TRISB
                          M     else
                          M       if (low (006h) == 255)
                          M         setf    TRISB
                          M       else
00019E 0E06               M         movlw   low (006h)
0001A0 6E93               M         movwf   TRISB
                          M       endif
                          M     endif
                      00235 
                      00236 ; C:\USERS\CONNO\DOCUMENTS\4TH YEAR\PROJECT\PIC CODE\TX_CODE_RESTRUCTURED.PBP   00019       TRISC=%00000
                            000
                      00237         MOVE?CB 000h, TRISC
                          M         CHK?RP  TRISC
                          M     if (((TRISC) & 8000h) != PREV_ALT)
                          M       if ((TRISC) & 8000h)
                          M         bsf     WDTCON, ADSHR
                          M       else
                          M         bcf     WDTCON, ADSHR
                          M       endif
                          M PREV_ALT = (TRISC) & 8000h
                          M     endif
                          M     if ((((TRISC) & 0fffh) > BANKA_END) & (((TRISC) & 0fffh) < (0f01h + BANKA_END)))
                          M       if (((TRISC) & 0f00h) != (PREV_BANK << 8))
                          M         movlb   high (TRISC)
                          M PREV_BANK = high (TRISC)
                          M       endif
                          M     endif
                          M     if (low (000h) == 0)
0001A2 6A94               M         clrf    TRISC
                          M     else
                          M       if (low (000h) == 255)
                          M         setf    TRISC
                          M       else
                          M         movlw   low (000h)
                          M         movwf   TRISC
                          M       endif
                          M     endif
                      00238 ; C:\USERS\CONNO\DOCUMENTS\4TH YEAR\PROJECT\PIC CODE\TX_CODE_RESTRUCTURED.PBP   00043       cycles con 6
                            0
                      00239 
MPASM 5.87          TX_CODE_RESTRUCTURED.ASM   5-23-2023  21:17:45         PAGE 15


LOC  OBJECT CODE     LINE SOURCE TEXT
  VALUE

                      00240 ; C:\USERS\CONNO\DOCUMENTS\4TH YEAR\PROJECT\PIC CODE\TX_CODE_RESTRUCTURED.PBP   00044       time=0
                      00241         MOVE?CW 000h, _time
                          M     ifdef USE_LINKER
                          M         CHK?RP  _time
                          M         movlw   low (000h)
                          M         movwf   _time
                          M         movlw   high (000h)
                          M         movwf   (_time) + 1
                          M     else
                          M         MOVE?CB low (000h), _time
                          M         CHK?RP  _time
                          M     if (((_time) & 8000h) != PREV_ALT)
                          M       if ((_time) & 8000h)
                          M         bsf     WDTCON, ADSHR
                          M       else
                          M         bcf     WDTCON, ADSHR
                          M       endif
                          M PREV_ALT = (_time) & 8000h
                          M     endif
                          M     if ((((_time) & 0fffh) > BANKA_END) & (((_time) & 0fffh) < (0f01h + BANKA_END)))
                          M       if (((_time) & 0f00h) != (PREV_BANK << 8))
                          M         movlb   high (_time)
                          M PREV_BANK = high (_time)
                          M       endif
                          M     endif
                          M     if (low (low (000h)) == 0)
0001A4 6A24               M         clrf    _time
                          M     else
                          M       if (low (low (000h)) == 255)
                          M         setf    _time
                          M       else
                          M         movlw   low (low (000h))
                          M         movwf   _time
                          M       endif
                          M     endif
                          M         MOVE?CB high (000h), (_time) + 1
                          M         CHK?RP  (_time) + 1
                          M     if ((((_time) + 1) & 8000h) != PREV_ALT)
                          M       if (((_time) + 1) & 8000h)
                          M         bsf     WDTCON, ADSHR
                          M       else
                          M         bcf     WDTCON, ADSHR
                          M       endif
                          M PREV_ALT = ((_time) + 1) & 8000h
                          M     endif
                          M     if (((((_time) + 1) & 0fffh) > BANKA_END) & ((((_time) + 1) & 0fffh) < (0f01h + BANKA_END)))
                          M       if ((((_time) + 1) & 0f00h) != (PREV_BANK << 8))
                          M         movlb   high ((_time) + 1)
                          M PREV_BANK = high ((_time) + 1)
                          M       endif
                          M     endif
                          M     if (low (high (000h)) == 0)
0001A6 6A25               M         clrf    (_time) + 1
MPASM 5.87          TX_CODE_RESTRUCTURED.ASM   5-23-2023  21:17:45         PAGE 16


LOC  OBJECT CODE     LINE SOURCE TEXT
  VALUE

                          M     else
                          M       if (low (high (000h)) == 255)
                          M         setf    (_time) + 1
                          M       else
                          M         movlw   low (high (000h))
                          M         movwf   (_time) + 1
                          M       endif
                          M     endif
                          M     endif
                      00242 
                      00243 ; C:\USERS\CONNO\DOCUMENTS\4TH YEAR\PROJECT\PIC CODE\TX_CODE_RESTRUCTURED.PBP   00045       counting=0
                      00244         MOVE?CB 000h, _counting
                          M         CHK?RP  _counting
                          M     if (((_counting) & 8000h) != PREV_ALT)
                          M       if ((_counting) & 8000h)
                          M         bsf     WDTCON, ADSHR
                          M       else
                          M         bcf     WDTCON, ADSHR
                          M       endif
                          M PREV_ALT = (_counting) & 8000h
                          M     endif
                          M     if ((((_counting) & 0fffh) > BANKA_END) & (((_counting) & 0fffh) < (0f01h + BANKA_END)))
                          M       if (((_counting) & 0f00h) != (PREV_BANK << 8))
                          M         movlb   high (_counting)
                          M PREV_BANK = high (_counting)
                          M       endif
                          M     endif
                          M     if (low (000h) == 0)
0001A8 6A28               M         clrf    _counting
                          M     else
                          M       if (low (000h) == 255)
                          M         setf    _counting
                          M       else
                          M         movlw   low (000h)
                          M         movwf   _counting
                          M       endif
                          M     endif
                      00245 
                      00246 ; C:\USERS\CONNO\DOCUMENTS\4TH YEAR\PROJECT\PIC CODE\TX_CODE_RESTRUCTURED.PBP   00046       arduino=0
                      00247         MOVE?CT 000h, _arduino
                          M         CHK?RP  PORTB
                          M     if (((PORTB) & 8000h) != PREV_ALT)
                          M       if ((PORTB) & 8000h)
                          M         bsf     WDTCON, ADSHR
                          M       else
                          M         bcf     WDTCON, ADSHR
                          M       endif
                          M PREV_ALT = (PORTB) & 8000h
                          M     endif
                          M     if ((((PORTB) & 0fffh) > BANKA_END) & (((PORTB) & 0fffh) < (0f01h + BANKA_END)))
                          M       if (((PORTB) & 0f00h) != (PREV_BANK << 8))
                          M         movlb   high (PORTB)
                          M PREV_BANK = high (PORTB)
MPASM 5.87          TX_CODE_RESTRUCTURED.ASM   5-23-2023  21:17:45         PAGE 17


LOC  OBJECT CODE     LINE SOURCE TEXT
  VALUE

                          M       endif
                          M     endif
                          M     if (((000h) & 1) == 1)
                          M         bsf     PORTB,  003h
                          M     else
0001AA 9681               M         bcf     PORTB,  003h
                          M     endif
                      00248 
                      00249 ; C:\USERS\CONNO\DOCUMENTS\4TH YEAR\PROJECT\PIC CODE\TX_CODE_RESTRUCTURED.PBP   00048   cycle:
                      00250 
                      00251         LABEL?L _cycle  
                          M         RST?RP
                          M     if (PREV_ALT != 0)
                          M         bcf     WDTCON, ADSHR
                          M PREV_ALT = 0
                          M     endif
                          M     if (PREV_BANK != 0)
                          M         movlb   0
                          M PREV_BANK = 0
                          M     endif
                          M     ifdef PM_USED
                          M         LALL
                          M _cycle
                          M         XALL
                          M     else
0001AC                    M _cycle
                          M     endif
                      00252 
                      00253 ; C:\USERS\CONNO\DOCUMENTS\4TH YEAR\PROJECT\PIC CODE\TX_CODE_RESTRUCTURED.PBP   00051       if time>=200
                            0 then 
                      00254         CMPLT?WCL       _time, 007D0h, L00001
                          M     if ((007D0h) >= 10000h)
                          M         L?GOTO  L00001
                          M     else
                          M       if ((007D0h) > 0)
                          M         MOVE?WW _time, R0
                          M         MOVE?BB _time, R0
0001AC C024 F002          M         movff   _time, R0
                          M         MOVE?BB (_time) + 1, (R0) + 1
0001B0 C025 F003          M         movff   (_time) + 1, (R0) + 1
                          M         MOVE?CB (007D0h) >> 8, R1 + 1
                          M         CHK?RP  R1 + 1
                          M     if (((R1 + 1) & 8000h) != PREV_ALT)
                          M       if ((R1 + 1) & 8000h)
                          M         bsf     WDTCON, ADSHR
                          M       else
                          M         bcf     WDTCON, ADSHR
                          M       endif
                          M PREV_ALT = (R1 + 1) & 8000h
                          M     endif
                          M     if ((((R1 + 1) & 0fffh) > BANKA_END) & (((R1 + 1) & 0fffh) < (0f01h + BANKA_END)))
                          M       if (((R1 + 1) & 0f00h) != (PREV_BANK << 8))
                          M         movlb   high (R1 + 1)
MPASM 5.87          TX_CODE_RESTRUCTURED.ASM   5-23-2023  21:17:45         PAGE 18


LOC  OBJECT CODE     LINE SOURCE TEXT
  VALUE

                          M PREV_BANK = high (R1 + 1)
                          M       endif
                          M     endif
                          M     if (low ((007D0h) >> 8) == 0)
                          M         clrf    R1 + 1
                          M     else
                          M       if (low ((007D0h) >> 8) == 255)
                          M         setf    R1 + 1
                          M       else
0001B4 0E07               M         movlw   low ((007D0h) >> 8)
0001B6 6E05               M         movwf   R1 + 1
                          M       endif
                          M     endif
                          M         MOVE?CA low (007D0h)
0001B8 0ED0               M         movlw   low (low (007D0h))
                          M         L?CALL  CMPLT
                          M         RST?RP
                          M     if (PREV_ALT != 0)
                          M         bcf     WDTCON, ADSHR
                          M PREV_ALT = 0
                          M     endif
                          M     if (PREV_BANK != 0)
                          M         movlb   0
                          M PREV_BANK = 0
                          M     endif
                          M 
                          M     ifdef USE_LINKER
                          M         call    CMPLT
                          M     else
                          M       if ((CMPLT) < 1)
                          M         call    CMPLT
                          M       else
                          M         if ((CMPLT) > $)
                          M         call    CMPLT
                          M         else
                          M           if ((CMPLT) < ($ - 3ffh))
                          M         call    CMPLT
                          M           else
0001BA DF9D               M         rcall   CMPLT
                          M           endif
                          M         endif
                          M       endif
                          M     endif
                          M         BIT?GOTO 0, STATUS, Z, L00001
                          M     ifdef USE_LINKER
                          M         CLRWDT?
                          M     else
                          M       if ($ == (L00001))
                          M         CLRWDT?
                          M       endif
                          M     endif
                          M 
                          M     if (((STATUS) > BANKA_END) & ((STATUS) < (0f01h + BANKA_END)))
MPASM 5.87          TX_CODE_RESTRUCTURED.ASM   5-23-2023  21:17:45         PAGE 19


LOC  OBJECT CODE     LINE SOURCE TEXT
  VALUE

                          M         bcf     STATUS, OV
                          M         CHK?RP  STATUS
                          M       if ((0)      == 0)
                          M         btfss   STATUS, Z
                          M       else
                          M         btfsc   STATUS, Z
                          M       endif
                          M         bsf     STATUS, OV
                          M         RST?RP
                          M       ifdef USE_LINKER
                          M         btfsc   STATUS, OV
                          M         goto    L00001
                          M       else
                          M         if ((L00001) < 1)
                          M         btfsc   STATUS, OV
                          M         goto    L00001
                          M         else
                          M           if ((L00001) > $)
                          M         btfsc   STATUS, OV
                          M         goto    L00001
                          M           else
                          M             if ((L00001) < ($ - 7fh))
                          M         btfsc   STATUS, OV
                          M         goto    L00001
                          M             else
                          M         bov     L00001
                          M             endif
                          M           endif
                          M         endif
                          M       endif
                          M     else
                          M         RST?RP
                          M     if (PREV_ALT != 0)
                          M         bcf     WDTCON, ADSHR
                          M PREV_ALT = 0
                          M     endif
                          M     if (PREV_BANK != 0)
                          M         movlb   0
                          M PREV_BANK = 0
                          M     endif
                          M       if ((0)      == 0)
0001BC A4D8               M         btfss   STATUS, Z
                          M       else
                          M         btfsc   STATUS, Z
                          M       endif
                          M       ifdef USE_LINKER
                          M         goto    L00001
                          M       else
                          M         if ((L00001) < 1)
                          M         goto    L00001
                          M         else
                          M           if ((L00001) > $)
0001BE EFEC F000          M         goto    L00001
MPASM 5.87          TX_CODE_RESTRUCTURED.ASM   5-23-2023  21:17:45         PAGE 20


LOC  OBJECT CODE     LINE SOURCE TEXT
  VALUE

                          M           else
                          M             if ((L00001) < ($ - 3ffh))
                          M         goto    L00001
                          M             else
                          M         bra     L00001
                          M             endif
                          M           endif
                          M         endif
                          M       endif
                          M     endif
                          M       endif
                          M     endif
                      00255 
                      00256 ; C:\USERS\CONNO\DOCUMENTS\4TH YEAR\PROJECT\PIC CODE\TX_CODE_RESTRUCTURED.PBP   00052           led=1
                      00257         MOVE?CT 001h, _led
                          M         CHK?RP  PORTB
                          M     if (((PORTB) & 8000h) != PREV_ALT)
                          M       if ((PORTB) & 8000h)
                          M         bsf     WDTCON, ADSHR
                          M       else
                          M         bcf     WDTCON, ADSHR
                          M       endif
                          M PREV_ALT = (PORTB) & 8000h
                          M     endif
                          M     if ((((PORTB) & 0fffh) > BANKA_END) & (((PORTB) & 0fffh) < (0f01h + BANKA_END)))
                          M       if (((PORTB) & 0f00h) != (PREV_BANK << 8))
                          M         movlb   high (PORTB)
                          M PREV_BANK = high (PORTB)
                          M       endif
                          M     endif
                          M     if (((001h) & 1) == 1)
0001C2 8081               M         bsf     PORTB,  000h
                          M     else
                          M         bcf     PORTB,  000h
                          M     endif
                      00258 
                      00259 ; C:\USERS\CONNO\DOCUMENTS\4TH YEAR\PROJECT\PIC CODE\TX_CODE_RESTRUCTURED.PBP   00053           pause 30
                            00
                      00260         PAUSE?C 00BB8h
                          M     if (((00BB8h) >> 8) == 0)
                          M         MOVE?CA 00BB8h
                          M         L?CALL  PAUSE
                          M     else
                          M         MOVE?CB (00BB8h) >> 8, R1 + 1
                          M         CHK?RP  R1 + 1
                          M     if (((R1 + 1) & 8000h) != PREV_ALT)
                          M       if ((R1 + 1) & 8000h)
                          M         bsf     WDTCON, ADSHR
                          M       else
                          M         bcf     WDTCON, ADSHR
                          M       endif
                          M PREV_ALT = (R1 + 1) & 8000h
                          M     endif
MPASM 5.87          TX_CODE_RESTRUCTURED.ASM   5-23-2023  21:17:45         PAGE 21


LOC  OBJECT CODE     LINE SOURCE TEXT
  VALUE

                          M     if ((((R1 + 1) & 0fffh) > BANKA_END) & (((R1 + 1) & 0fffh) < (0f01h + BANKA_END)))
                          M       if (((R1 + 1) & 0f00h) != (PREV_BANK << 8))
                          M         movlb   high (R1 + 1)
                          M PREV_BANK = high (R1 + 1)
                          M       endif
                          M     endif
                          M     if (low ((00BB8h) >> 8) == 0)
                          M         clrf    R1 + 1
                          M     else
                          M       if (low ((00BB8h) >> 8) == 255)
                          M         setf    R1 + 1
                          M       else
0001C4 0E0B               M         movlw   low ((00BB8h) >> 8)
0001C6 6E05               M         movwf   R1 + 1
                          M       endif
                          M     endif
                          M         MOVE?CA low (00BB8h)
0001C8 0EB8               M         movlw   low (low (00BB8h))
                          M         L?CALL  PAUSEL
                          M         RST?RP
                          M     if (PREV_ALT != 0)
                          M         bcf     WDTCON, ADSHR
                          M PREV_ALT = 0
                          M     endif
                          M     if (PREV_BANK != 0)
                          M         movlb   0
                          M PREV_BANK = 0
                          M     endif
                          M 
                          M     ifdef USE_LINKER
                          M         call    PAUSEL
                          M     else
                          M       if ((PAUSEL) < 1)
                          M         call    PAUSEL
                          M       else
                          M         if ((PAUSEL) > $)
                          M         call    PAUSEL
                          M         else
                          M           if ((PAUSEL) < ($ - 3ffh))
                          M         call    PAUSEL
                          M           else
0001CA DF5C               M         rcall   PAUSEL
                          M           endif
                          M         endif
                          M       endif
                          M     endif
                          M     endif
                      00261 
                      00262 ; C:\USERS\CONNO\DOCUMENTS\4TH YEAR\PROJECT\PIC CODE\TX_CODE_RESTRUCTURED.PBP   00054           gosub sl
                            eep_time
                      00263         GOSUB?L _sleep_time
  0000                    M     local dlabel
                          M     ifdef DEBUG_STACK
MPASM 5.87          TX_CODE_RESTRUCTURED.ASM   5-23-2023  21:17:45         PAGE 22


LOC  OBJECT CODE     LINE SOURCE TEXT
  VALUE

                          M         CHK?RP  DEBUG_STACK
                          M       ifdef DEBUG_STACK_ADDR
                          M         bcf     STATUS, C
                          M         rlcf    DEBUG_STACK, W
                          M         addlw   DEBUG_STACK_ADDR
                          M         movwf   FSR0L
                          M         clrf    FSR0H
                          M         movlw   low (dlabel)
                          M         movwf   POSTINC0
                          M         movlw   high (dlabel)
                          M         movwf   INDF0
                          M       endif
                          M         incf    DEBUG_STACK, F
                          M     endif
                          M         L?CALL  _sleep_time
                          M         RST?RP
                          M     if (PREV_ALT != 0)
                          M         bcf     WDTCON, ADSHR
                          M PREV_ALT = 0
                          M     endif
                          M     if (PREV_BANK != 0)
                          M         movlb   0
                          M PREV_BANK = 0
                          M     endif
                          M 
                          M     ifdef USE_LINKER
                          M         call    _sleep_time
                          M     else
                          M       if ((_sleep_time) < 1)
                          M         call    _sleep_time
                          M       else
                          M         if ((_sleep_time) > $)
0001CC EC7B F001          M         call    _sleep_time
                          M         else
                          M           if ((_sleep_time) < ($ - 3ffh))
                          M         call    _sleep_time
                          M           else
                          M         rcall   _sleep_time
                          M           endif
                          M         endif
                          M       endif
                          M     endif
0001D0                    M dlabel
                      00264 
                      00265 ; C:\USERS\CONNO\DOCUMENTS\4TH YEAR\PROJECT\PIC CODE\TX_CODE_RESTRUCTURED.PBP   00055           pause 75
                                
                      00266         PAUSE?C 04Bh
                          M     if (((04Bh) >> 8) == 0)
                          M         MOVE?CA 04Bh
0001D0 0E4B               M         movlw   low (04Bh)
                          M         L?CALL  PAUSE
                          M         RST?RP
                          M     if (PREV_ALT != 0)
MPASM 5.87          TX_CODE_RESTRUCTURED.ASM   5-23-2023  21:17:45         PAGE 23


LOC  OBJECT CODE     LINE SOURCE TEXT
  VALUE

                          M         bcf     WDTCON, ADSHR
                          M PREV_ALT = 0
                          M     endif
                          M     if (PREV_BANK != 0)
                          M         movlb   0
                          M PREV_BANK = 0
                          M     endif
                          M 
                          M     ifdef USE_LINKER
                          M         call    PAUSE
                          M     else
                          M       if ((PAUSE) < 1)
                          M         call    PAUSE
                          M       else
                          M         if ((PAUSE) > $)
                          M         call    PAUSE
                          M         else
                          M           if ((PAUSE) < ($ - 3ffh))
                          M         call    PAUSE
                          M           else
0001D2 DF57               M         rcall   PAUSE
                          M           endif
                          M         endif
                          M       endif
                          M     endif
                          M     else
                          M         MOVE?CB (04Bh) >> 8, R1 + 1
                          M         MOVE?CA low (04Bh)
                          M         L?CALL  PAUSEL
                          M     endif
                      00267 
                      00268 ; C:\USERS\CONNO\DOCUMENTS\4TH YEAR\PROJECT\PIC CODE\TX_CODE_RESTRUCTURED.PBP   00057       elseif tilt=
                            =0 then
                      00269         GOTO?L  L00002
                          M         L?GOTO  L00002
                          M     ifdef USE_LINKER
                          M         CLRWDT?
                          M     else
                          M       if ($ == (L00002))
                          M         CLRWDT?
                          M       endif
                          M     endif
                          M 
                          M         RST?RP
                          M     if (PREV_ALT != 0)
                          M         bcf     WDTCON, ADSHR
                          M PREV_ALT = 0
                          M     endif
                          M     if (PREV_BANK != 0)
                          M         movlb   0
                          M PREV_BANK = 0
                          M     endif
                          M 
MPASM 5.87          TX_CODE_RESTRUCTURED.ASM   5-23-2023  21:17:45         PAGE 24


LOC  OBJECT CODE     LINE SOURCE TEXT
  VALUE

                          M     ifdef USE_LINKER
                          M         goto    L00002
                          M     else
                          M       if ((L00002) < 1)
                          M         goto    L00002
                          M       else
                          M         if ((L00002) > $)
0001D4 EFF4 F000          M         goto    L00002
                          M         else
                          M           if ((L00002) < ($ - 3ffh))
                          M         goto    L00002
                          M           else
                          M         bra     L00002
                          M           endif
                          M         endif
                          M       endif
                          M     endif
                      00270         LABEL?L L00001  
                          M         RST?RP
                          M     if (PREV_ALT != 0)
                          M         bcf     WDTCON, ADSHR
                          M PREV_ALT = 0
                          M     endif
                          M     if (PREV_BANK != 0)
                          M         movlb   0
                          M PREV_BANK = 0
                          M     endif
                          M     ifdef PM_USED
                          M         LALL
                          M L00001
                          M         XALL
                          M     else
0001D8                    M L00001
                          M     endif
                      00271         CMPNE?TCL       _tilt, 000h, L00003
                          M     if ((000h) == 0)
                          M         CLRWDT?
                          M     ifndef NO_CLRWDT
0001D8 0004               M         clrwdt
                          M     endif
                          M         BIT?GOTO 1, PORTB, 001h,  L00003
                          M     ifdef USE_LINKER
                          M         CLRWDT?
                          M     else
                          M       if ($ == (L00003))
                          M         CLRWDT?
                          M       endif
                          M     endif
                          M 
                          M     if (((PORTB) > BANKA_END) & ((PORTB) < (0f01h + BANKA_END)))
                          M         bcf     STATUS, OV
                          M         CHK?RP  PORTB
                          M       if ((1)      == 0)
MPASM 5.87          TX_CODE_RESTRUCTURED.ASM   5-23-2023  21:17:45         PAGE 25


LOC  OBJECT CODE     LINE SOURCE TEXT
  VALUE

                          M         btfss   PORTB, 001h
                          M       else
                          M         btfsc   PORTB, 001h
                          M       endif
                          M         bsf     STATUS, OV
                          M         RST?RP
                          M       ifdef USE_LINKER
                          M         btfsc   STATUS, OV
                          M         goto    L00003
                          M       else
                          M         if ((L00003) < 1)
                          M         btfsc   STATUS, OV
                          M         goto    L00003
                          M         else
                          M           if ((L00003) > $)
                          M         btfsc   STATUS, OV
                          M         goto    L00003
                          M           else
                          M             if ((L00003) < ($ - 7fh))
                          M         btfsc   STATUS, OV
                          M         goto    L00003
                          M             else
                          M         bov     L00003
                          M             endif
                          M           endif
                          M         endif
                          M       endif
                          M     else
                          M         RST?RP
                          M     if (PREV_ALT != 0)
                          M         bcf     WDTCON, ADSHR
                          M PREV_ALT = 0
                          M     endif
                          M     if (PREV_BANK != 0)
                          M         movlb   0
                          M PREV_BANK = 0
                          M     endif
                          M       if ((1)      == 0)
                          M         btfss   PORTB, 001h
                          M       else
0001DA B281               M         btfsc   PORTB, 001h
                          M       endif
                          M       ifdef USE_LINKER
                          M         goto    L00003
                          M       else
                          M         if ((L00003) < 1)
                          M         goto    L00003
                          M         else
                          M           if ((L00003) > $)
0001DC EFF4 F000          M         goto    L00003
                          M           else
                          M             if ((L00003) < ($ - 3ffh))
                          M         goto    L00003
MPASM 5.87          TX_CODE_RESTRUCTURED.ASM   5-23-2023  21:17:45         PAGE 26


LOC  OBJECT CODE     LINE SOURCE TEXT
  VALUE

                          M             else
                          M         bra     L00003
                          M             endif
                          M           endif
                          M         endif
                          M       endif
                          M     endif
                          M     else
                          M       if ((000h) == 1)
                          M         CLRWDT?
                          M         BIT?GOTO 0, PORTB, 001h,  L00003
                          M       else
                          M         L?GOTO  L00003
                          M       endif
                          M     endif
                      00272 
                      00273 ; C:\USERS\CONNO\DOCUMENTS\4TH YEAR\PROJECT\PIC CODE\TX_CODE_RESTRUCTURED.PBP   00061           time=tim
                            e+20
                      00274         ADD?WCW _time, 014h, _time
                          M     if ((_time) == (_time))
                          M         CHK?RP  _time
                          M     if (((_time) & 8000h) != PREV_ALT)
                          M       if ((_time) & 8000h)
                          M         bsf     WDTCON, ADSHR
                          M       else
                          M         bcf     WDTCON, ADSHR
                          M       endif
                          M PREV_ALT = (_time) & 8000h
                          M     endif
                          M     if ((((_time) & 0fffh) > BANKA_END) & (((_time) & 0fffh) < (0f01h + BANKA_END)))
                          M       if (((_time) & 0f00h) != (PREV_BANK << 8))
                          M         movlb   high (_time)
                          M PREV_BANK = high (_time)
                          M       endif
                          M     endif
                          M       if ((014h) == 1)
                          M         incf    _time, F
                          M       else  
0001E0 0E14               M         movlw   low (014h)
0001E2 2624               M         addwf   _time, F
                          M       endif
0001E4 0E00               M         movlw   (014h) >> 8
0001E6 2225               M         addwfc  (_time) + 1, F
                          M     else
                          M         CHK?RP  _time
                          M       if ((014h) == 1)
                          M         incf    _time, W
                          M       else
                          M         movlw   low (014h)
                          M         addwf   _time, W
                          M       endif
                          M         MOVE?AB _time
                          M         movlw   (014h) >> 8
MPASM 5.87          TX_CODE_RESTRUCTURED.ASM   5-23-2023  21:17:45         PAGE 27


LOC  OBJECT CODE     LINE SOURCE TEXT
  VALUE

                          M         CHK?RP  _time
                          M         addwfc  (_time) + 1, W
                          M         MOVE?AB (_time) + 1
                          M     endif
                      00275 
                      00276 ; C:\USERS\CONNO\DOCUMENTS\4TH YEAR\PROJECT\PIC CODE\TX_CODE_RESTRUCTURED.PBP   00062       endif
                      00277         LABEL?L L00002  
                          M         RST?RP
                          M     if (PREV_ALT != 0)
                          M         bcf     WDTCON, ADSHR
                          M PREV_ALT = 0
                          M     endif
                          M     if (PREV_BANK != 0)
                          M         movlb   0
                          M PREV_BANK = 0
                          M     endif
                          M     ifdef PM_USED
                          M         LALL
                          M L00002
                          M         XALL
                          M     else
0001E8                    M L00002
                          M     endif
                      00278         LABEL?L L00003  
                          M         RST?RP
                          M     if (PREV_ALT != 0)
                          M         bcf     WDTCON, ADSHR
                          M PREV_ALT = 0
                          M     endif
                          M     if (PREV_BANK != 0)
                          M         movlb   0
                          M PREV_BANK = 0
                          M     endif
                          M     ifdef PM_USED
                          M         LALL
                          M L00003
                          M         XALL
                          M     else
0001E8                    M L00003
                          M     endif
                      00279 
                      00280 ; C:\USERS\CONNO\DOCUMENTS\4TH YEAR\PROJECT\PIC CODE\TX_CODE_RESTRUCTURED.PBP   00065       if Piezo ==1
                             then
                      00281         CMPNE?TCL       _Piezo, 001h, L00005
                          M     if ((001h) == 0)
                          M         CLRWDT?
                          M         BIT?GOTO 1, PORTB, 002h,  L00005
                          M     else
                          M       if ((001h) == 1)
                          M         CLRWDT?
                          M     ifndef NO_CLRWDT
0001E8 0004               M         clrwdt
                          M     endif
MPASM 5.87          TX_CODE_RESTRUCTURED.ASM   5-23-2023  21:17:45         PAGE 28


LOC  OBJECT CODE     LINE SOURCE TEXT
  VALUE

                          M         BIT?GOTO 0, PORTB, 002h,  L00005
                          M     ifdef USE_LINKER
                          M         CLRWDT?
                          M     else
                          M       if ($ == (L00005))
                          M         CLRWDT?
                          M       endif
                          M     endif
                          M 
                          M     if (((PORTB) > BANKA_END) & ((PORTB) < (0f01h + BANKA_END)))
                          M         bcf     STATUS, OV
                          M         CHK?RP  PORTB
                          M       if ((0)      == 0)
                          M         btfss   PORTB, 002h
                          M       else
                          M         btfsc   PORTB, 002h
                          M       endif
                          M         bsf     STATUS, OV
                          M         RST?RP
                          M       ifdef USE_LINKER
                          M         btfsc   STATUS, OV
                          M         goto    L00005
                          M       else
                          M         if ((L00005) < 1)
                          M         btfsc   STATUS, OV
                          M         goto    L00005
                          M         else
                          M           if ((L00005) > $)
                          M         btfsc   STATUS, OV
                          M         goto    L00005
                          M           else
                          M             if ((L00005) < ($ - 7fh))
                          M         btfsc   STATUS, OV
                          M         goto    L00005
                          M             else
                          M         bov     L00005
                          M             endif
                          M           endif
                          M         endif
                          M       endif
                          M     else
                          M         RST?RP
                          M     if (PREV_ALT != 0)
                          M         bcf     WDTCON, ADSHR
                          M PREV_ALT = 0
                          M     endif
                          M     if (PREV_BANK != 0)
                          M         movlb   0
                          M PREV_BANK = 0
                          M     endif
                          M       if ((0)      == 0)
0001EA A481               M         btfss   PORTB, 002h
                          M       else
MPASM 5.87          TX_CODE_RESTRUCTURED.ASM   5-23-2023  21:17:45         PAGE 29


LOC  OBJECT CODE     LINE SOURCE TEXT
  VALUE

                          M         btfsc   PORTB, 002h
                          M       endif
                          M       ifdef USE_LINKER
                          M         goto    L00005
                          M       else
                          M         if ((L00005) < 1)
                          M         goto    L00005
                          M         else
                          M           if ((L00005) > $)
0001EC EF4E F001          M         goto    L00005
                          M           else
                          M             if ((L00005) < ($ - 3ffh))
                          M         goto    L00005
                          M             else
                          M         bra     L00005
                          M             endif
                          M           endif
                          M         endif
                          M       endif
                          M     endif
                          M       else
                          M         L?GOTO  L00005
                          M       endif
                          M     endif
                      00282 
                      00283 ; C:\USERS\CONNO\DOCUMENTS\4TH YEAR\PROJECT\PIC CODE\TX_CODE_RESTRUCTURED.PBP   00067           time=0
                      00284         MOVE?CW 000h, _time
                          M     ifdef USE_LINKER
                          M         CHK?RP  _time
                          M         movlw   low (000h)
                          M         movwf   _time
                          M         movlw   high (000h)
                          M         movwf   (_time) + 1
                          M     else
                          M         MOVE?CB low (000h), _time
                          M         CHK?RP  _time
                          M     if (((_time) & 8000h) != PREV_ALT)
                          M       if ((_time) & 8000h)
                          M         bsf     WDTCON, ADSHR
                          M       else
                          M         bcf     WDTCON, ADSHR
                          M       endif
                          M PREV_ALT = (_time) & 8000h
                          M     endif
                          M     if ((((_time) & 0fffh) > BANKA_END) & (((_time) & 0fffh) < (0f01h + BANKA_END)))
                          M       if (((_time) & 0f00h) != (PREV_BANK << 8))
                          M         movlb   high (_time)
                          M PREV_BANK = high (_time)
                          M       endif
                          M     endif
                          M     if (low (low (000h)) == 0)
0001F0 6A24               M         clrf    _time
                          M     else
MPASM 5.87          TX_CODE_RESTRUCTURED.ASM   5-23-2023  21:17:45         PAGE 30


LOC  OBJECT CODE     LINE SOURCE TEXT
  VALUE

                          M       if (low (low (000h)) == 255)
                          M         setf    _time
                          M       else
                          M         movlw   low (low (000h))
                          M         movwf   _time
                          M       endif
                          M     endif
                          M         MOVE?CB high (000h), (_time) + 1
                          M         CHK?RP  (_time) + 1
                          M     if ((((_time) + 1) & 8000h) != PREV_ALT)
                          M       if (((_time) + 1) & 8000h)
                          M         bsf     WDTCON, ADSHR
                          M       else
                          M         bcf     WDTCON, ADSHR
                          M       endif
                          M PREV_ALT = ((_time) + 1) & 8000h
                          M     endif
                          M     if (((((_time) + 1) & 0fffh) > BANKA_END) & ((((_time) + 1) & 0fffh) < (0f01h + BANKA_END)))
                          M       if ((((_time) + 1) & 0f00h) != (PREV_BANK << 8))
                          M         movlb   high ((_time) + 1)
                          M PREV_BANK = high ((_time) + 1)
                          M       endif
                          M     endif
                          M     if (low (high (000h)) == 0)
0001F2 6A25               M         clrf    (_time) + 1
                          M     else
                          M       if (low (high (000h)) == 255)
                          M         setf    (_time) + 1
                          M       else
                          M         movlw   low (high (000h))
                          M         movwf   (_time) + 1
                          M       endif
                          M     endif
                          M     endif
                      00285 
                      00286 ; C:\USERS\CONNO\DOCUMENTS\4TH YEAR\PROJECT\PIC CODE\TX_CODE_RESTRUCTURED.PBP   00068           counting
                            =0
                      00287         MOVE?CB 000h, _counting
                          M         CHK?RP  _counting
                          M     if (((_counting) & 8000h) != PREV_ALT)
                          M       if ((_counting) & 8000h)
                          M         bsf     WDTCON, ADSHR
                          M       else
                          M         bcf     WDTCON, ADSHR
                          M       endif
                          M PREV_ALT = (_counting) & 8000h
                          M     endif
                          M     if ((((_counting) & 0fffh) > BANKA_END) & (((_counting) & 0fffh) < (0f01h + BANKA_END)))
                          M       if (((_counting) & 0f00h) != (PREV_BANK << 8))
                          M         movlb   high (_counting)
                          M PREV_BANK = high (_counting)
                          M       endif
                          M     endif
MPASM 5.87          TX_CODE_RESTRUCTURED.ASM   5-23-2023  21:17:45         PAGE 31


LOC  OBJECT CODE     LINE SOURCE TEXT
  VALUE

                          M     if (low (000h) == 0)
0001F4 6A28               M         clrf    _counting
                          M     else
                          M       if (low (000h) == 255)
                          M         setf    _counting
                          M       else
                          M         movlw   low (000h)
                          M         movwf   _counting
                          M       endif
                          M     endif
                      00288 
                      00289 ; C:\USERS\CONNO\DOCUMENTS\4TH YEAR\PROJECT\PIC CODE\TX_CODE_RESTRUCTURED.PBP   00069           light=0
                      00290         MOVE?CW 000h, _light
                          M     ifdef USE_LINKER
                          M         CHK?RP  _light
                          M         movlw   low (000h)
                          M         movwf   _light
                          M         movlw   high (000h)
                          M         movwf   (_light) + 1
                          M     else
                          M         MOVE?CB low (000h), _light
                          M         CHK?RP  _light
                          M     if (((_light) & 8000h) != PREV_ALT)
                          M       if ((_light) & 8000h)
                          M         bsf     WDTCON, ADSHR
                          M       else
                          M         bcf     WDTCON, ADSHR
                          M       endif
                          M PREV_ALT = (_light) & 8000h
                          M     endif
                          M     if ((((_light) & 0fffh) > BANKA_END) & (((_light) & 0fffh) < (0f01h + BANKA_END)))
                          M       if (((_light) & 0f00h) != (PREV_BANK << 8))
                          M         movlb   high (_light)
                          M PREV_BANK = high (_light)
                          M       endif
                          M     endif
                          M     if (low (low (000h)) == 0)
0001F6 6A20               M         clrf    _light
                          M     else
                          M       if (low (low (000h)) == 255)
                          M         setf    _light
                          M       else
                          M         movlw   low (low (000h))
                          M         movwf   _light
                          M       endif
                          M     endif
                          M         MOVE?CB high (000h), (_light) + 1
                          M         CHK?RP  (_light) + 1
                          M     if ((((_light) + 1) & 8000h) != PREV_ALT)
                          M       if (((_light) + 1) & 8000h)
                          M         bsf     WDTCON, ADSHR
                          M       else
                          M         bcf     WDTCON, ADSHR
MPASM 5.87          TX_CODE_RESTRUCTURED.ASM   5-23-2023  21:17:45         PAGE 32


LOC  OBJECT CODE     LINE SOURCE TEXT
  VALUE

                          M       endif
                          M PREV_ALT = ((_light) + 1) & 8000h
                          M     endif
                          M     if (((((_light) + 1) & 0fffh) > BANKA_END) & ((((_light) + 1) & 0fffh) < (0f01h + BANKA_END)))
                          M       if ((((_light) + 1) & 0f00h) != (PREV_BANK << 8))
                          M         movlb   high ((_light) + 1)
                          M PREV_BANK = high ((_light) + 1)
                          M       endif
                          M     endif
                          M     if (low (high (000h)) == 0)
0001F8 6A21               M         clrf    (_light) + 1
                          M     else
                          M       if (low (high (000h)) == 255)
                          M         setf    (_light) + 1
                          M       else
                          M         movlw   low (high (000h))
                          M         movwf   (_light) + 1
                          M       endif
                          M     endif
                          M     endif
                      00291 
                      00292 ; C:\USERS\CONNO\DOCUMENTS\4TH YEAR\PROJECT\PIC CODE\TX_CODE_RESTRUCTURED.PBP   00071           gosub te
                            mpscan
                      00293         GOSUB?L _tempscan
  0000                    M     local dlabel
                          M     ifdef DEBUG_STACK
                          M         CHK?RP  DEBUG_STACK
                          M       ifdef DEBUG_STACK_ADDR
                          M         bcf     STATUS, C
                          M         rlcf    DEBUG_STACK, W
                          M         addlw   DEBUG_STACK_ADDR
                          M         movwf   FSR0L
                          M         clrf    FSR0H
                          M         movlw   low (dlabel)
                          M         movwf   POSTINC0
                          M         movlw   high (dlabel)
                          M         movwf   INDF0
                          M       endif
                          M         incf    DEBUG_STACK, F
                          M     endif
                          M         L?CALL  _tempscan
                          M         RST?RP
                          M     if (PREV_ALT != 0)
                          M         bcf     WDTCON, ADSHR
                          M PREV_ALT = 0
                          M     endif
                          M     if (PREV_BANK != 0)
                          M         movlb   0
                          M PREV_BANK = 0
                          M     endif
                          M 
                          M     ifdef USE_LINKER
                          M         call    _tempscan
MPASM 5.87          TX_CODE_RESTRUCTURED.ASM   5-23-2023  21:17:45         PAGE 33


LOC  OBJECT CODE     LINE SOURCE TEXT
  VALUE

                          M     else
                          M       if ((_tempscan) < 1)
                          M         call    _tempscan
                          M       else
                          M         if ((_tempscan) > $)
0001FA ECDE F001          M         call    _tempscan
                          M         else
                          M           if ((_tempscan) < ($ - 3ffh))
                          M         call    _tempscan
                          M           else
                          M         rcall   _tempscan
                          M           endif
                          M         endif
                          M       endif
                          M     endif
0001FE                    M dlabel
                      00294 
                      00295 ; C:\USERS\CONNO\DOCUMENTS\4TH YEAR\PROJECT\PIC CODE\TX_CODE_RESTRUCTURED.PBP   00072           gosub ba
                            tteryscan
                      00296         GOSUB?L _batteryscan
  0000                    M     local dlabel
                          M     ifdef DEBUG_STACK
                          M         CHK?RP  DEBUG_STACK
                          M       ifdef DEBUG_STACK_ADDR
                          M         bcf     STATUS, C
                          M         rlcf    DEBUG_STACK, W
                          M         addlw   DEBUG_STACK_ADDR
                          M         movwf   FSR0L
                          M         clrf    FSR0H
                          M         movlw   low (dlabel)
                          M         movwf   POSTINC0
                          M         movlw   high (dlabel)
                          M         movwf   INDF0
                          M       endif
                          M         incf    DEBUG_STACK, F
                          M     endif
                          M         L?CALL  _batteryscan
                          M         RST?RP
                          M     if (PREV_ALT != 0)
                          M         bcf     WDTCON, ADSHR
                          M PREV_ALT = 0
                          M     endif
                          M     if (PREV_BANK != 0)
                          M         movlb   0
                          M PREV_BANK = 0
                          M     endif
                          M 
                          M     ifdef USE_LINKER
                          M         call    _batteryscan
                          M     else
                          M       if ((_batteryscan) < 1)
                          M         call    _batteryscan
                          M       else
MPASM 5.87          TX_CODE_RESTRUCTURED.ASM   5-23-2023  21:17:45         PAGE 34


LOC  OBJECT CODE     LINE SOURCE TEXT
  VALUE

                          M         if ((_batteryscan) > $)
0001FE EC12 F002          M         call    _batteryscan
                          M         else
                          M           if ((_batteryscan) < ($ - 3ffh))
                          M         call    _batteryscan
                          M           else
                          M         rcall   _batteryscan
                          M           endif
                          M         endif
                          M       endif
                          M     endif
000202                    M dlabel
                      00297 
                      00298 ; C:\USERS\CONNO\DOCUMENTS\4TH YEAR\PROJECT\PIC CODE\TX_CODE_RESTRUCTURED.PBP   00073           while co
                            unting<=cycles
                      00299         LABEL?L L00007  
                          M         RST?RP
                          M     if (PREV_ALT != 0)
                          M         bcf     WDTCON, ADSHR
                          M PREV_ALT = 0
                          M     endif
                          M     if (PREV_BANK != 0)
                          M         movlb   0
                          M PREV_BANK = 0
                          M     endif
                          M     ifdef PM_USED
                          M         LALL
                          M L00007
                          M         XALL
                          M     else
000202                    M L00007
                          M     endif
                      00300         CMPGT?BCL       _counting, _cycles, L00008
                          M     if ((_cycles) < 0)
                          M         L?GOTO  L00008
                          M     else
                          M       if ((_cycles) < 0ffh)
                          M         CLRWDT?
                          M     ifndef NO_CLRWDT
000202 0004               M         clrwdt
                          M     endif
                          M         MOVE?CA (_cycles) + 1
000204 0E3D               M         movlw   low ((_cycles) + 1)
                          M         CHK?RP  _counting
                          M     if (((_counting) & 8000h) != PREV_ALT)
                          M       if ((_counting) & 8000h)
                          M         bsf     WDTCON, ADSHR
                          M       else
                          M         bcf     WDTCON, ADSHR
                          M       endif
                          M PREV_ALT = (_counting) & 8000h
                          M     endif
                          M     if ((((_counting) & 0fffh) > BANKA_END) & (((_counting) & 0fffh) < (0f01h + BANKA_END)))
MPASM 5.87          TX_CODE_RESTRUCTURED.ASM   5-23-2023  21:17:45         PAGE 35


LOC  OBJECT CODE     LINE SOURCE TEXT
  VALUE

                          M       if (((_counting) & 0f00h) != (PREV_BANK << 8))
                          M         movlb   high (_counting)
                          M PREV_BANK = high (_counting)
                          M       endif
                          M     endif
000206 5C28               M         subwf   _counting, W
                          M         BIT?GOTO 1, STATUS, C, L00008
                          M     ifdef USE_LINKER
                          M         CLRWDT?
                          M     else
                          M       if ($ == (L00008))
                          M         CLRWDT?
                          M       endif
                          M     endif
                          M 
                          M     if (((STATUS) > BANKA_END) & ((STATUS) < (0f01h + BANKA_END)))
                          M         bcf     STATUS, OV
                          M         CHK?RP  STATUS
                          M       if ((1)      == 0)
                          M         btfss   STATUS, C
                          M       else
                          M         btfsc   STATUS, C
                          M       endif
                          M         bsf     STATUS, OV
                          M         RST?RP
                          M       ifdef USE_LINKER
                          M         btfsc   STATUS, OV
                          M         goto    L00008
                          M       else
                          M         if ((L00008) < 1)
                          M         btfsc   STATUS, OV
                          M         goto    L00008
                          M         else
                          M           if ((L00008) > $)
                          M         btfsc   STATUS, OV
                          M         goto    L00008
                          M           else
                          M             if ((L00008) < ($ - 7fh))
                          M         btfsc   STATUS, OV
                          M         goto    L00008
                          M             else
                          M         bov     L00008
                          M             endif
                          M           endif
                          M         endif
                          M       endif
                          M     else
                          M         RST?RP
                          M     if (PREV_ALT != 0)
                          M         bcf     WDTCON, ADSHR
                          M PREV_ALT = 0
                          M     endif
                          M     if (PREV_BANK != 0)
MPASM 5.87          TX_CODE_RESTRUCTURED.ASM   5-23-2023  21:17:45         PAGE 36


LOC  OBJECT CODE     LINE SOURCE TEXT
  VALUE

                          M         movlb   0
                          M PREV_BANK = 0
                          M     endif
                          M       if ((1)      == 0)
                          M         btfss   STATUS, C
                          M       else
000208 B0D8               M         btfsc   STATUS, C
                          M       endif
                          M       ifdef USE_LINKER
                          M         goto    L00008
                          M       else
                          M         if ((L00008) < 1)
                          M         goto    L00008
                          M         else
                          M           if ((L00008) > $)
00020A EF20 F001          M         goto    L00008
                          M           else
                          M             if ((L00008) < ($ - 3ffh))
                          M         goto    L00008
                          M             else
                          M         bra     L00008
                          M             endif
                          M           endif
                          M         endif
                          M       endif
                          M     endif
                          M       endif
                          M     endif
                      00301 
                      00302 ; C:\USERS\CONNO\DOCUMENTS\4TH YEAR\PROJECT\PIC CODE\TX_CODE_RESTRUCTURED.PBP   00074               coun
                            ting=counting+1
                      00303         ADD?BCB _counting, 001h, _counting
                          M     if ((_counting) == (_counting))
                          M       if ((001h) == 1)
                          M         CHK?RP  _counting
                          M     if (((_counting) & 8000h) != PREV_ALT)
                          M       if ((_counting) & 8000h)
                          M         bsf     WDTCON, ADSHR
                          M       else
                          M         bcf     WDTCON, ADSHR
                          M       endif
                          M PREV_ALT = (_counting) & 8000h
                          M     endif
                          M     if ((((_counting) & 0fffh) > BANKA_END) & (((_counting) & 0fffh) < (0f01h + BANKA_END)))
                          M       if (((_counting) & 0f00h) != (PREV_BANK << 8))
                          M         movlb   high (_counting)
                          M PREV_BANK = high (_counting)
                          M       endif
                          M     endif
00020E 2A28               M         incf    _counting, F
                          M       else
                          M         movlw   001h
                          M         CHK?RP  _counting
MPASM 5.87          TX_CODE_RESTRUCTURED.ASM   5-23-2023  21:17:45         PAGE 37


LOC  OBJECT CODE     LINE SOURCE TEXT
  VALUE

                          M         addwf   _counting, F
                          M       endif
                          M     else
                          M       if ((001h) == 1)
                          M         CHK?RP  _counting
                          M         incf    _counting, W
                          M         MOVE?AB _counting
                          M       else
                          M         movlw   001h
                          M         CHK?RP  _counting
                          M         addwf   _counting, W
                          M         MOVE?AB _counting
                          M       endif
                          M     endif
                      00304 
                      00305 ; C:\USERS\CONNO\DOCUMENTS\4TH YEAR\PROJECT\PIC CODE\TX_CODE_RESTRUCTURED.PBP   00075               gosu
                            b obtain
                      00306         GOSUB?L _obtain
  0000                    M     local dlabel
                          M     ifdef DEBUG_STACK
                          M         CHK?RP  DEBUG_STACK
                          M       ifdef DEBUG_STACK_ADDR
                          M         bcf     STATUS, C
                          M         rlcf    DEBUG_STACK, W
                          M         addlw   DEBUG_STACK_ADDR
                          M         movwf   FSR0L
                          M         clrf    FSR0H
                          M         movlw   low (dlabel)
                          M         movwf   POSTINC0
                          M         movlw   high (dlabel)
                          M         movwf   INDF0
                          M       endif
                          M         incf    DEBUG_STACK, F
                          M     endif
                          M         L?CALL  _obtain
                          M         RST?RP
                          M     if (PREV_ALT != 0)
                          M         bcf     WDTCON, ADSHR
                          M PREV_ALT = 0
                          M     endif
                          M     if (PREV_BANK != 0)
                          M         movlb   0
                          M PREV_BANK = 0
                          M     endif
                          M 
                          M     ifdef USE_LINKER
                          M         call    _obtain
                          M     else
                          M       if ((_obtain) < 1)
                          M         call    _obtain
                          M       else
                          M         if ((_obtain) > $)
000210 EC00 F002          M         call    _obtain
MPASM 5.87          TX_CODE_RESTRUCTURED.ASM   5-23-2023  21:17:45         PAGE 38


LOC  OBJECT CODE     LINE SOURCE TEXT
  VALUE

                          M         else
                          M           if ((_obtain) < ($ - 3ffh))
                          M         call    _obtain
                          M           else
                          M         rcall   _obtain
                          M           endif
                          M         endif
                          M       endif
                          M     endif
000214                    M dlabel
                      00307 
                      00308 ; C:\USERS\CONNO\DOCUMENTS\4TH YEAR\PROJECT\PIC CODE\TX_CODE_RESTRUCTURED.PBP   00076               if A
                            >B then
                      00309         CMPLE?WWL       _A, _B, L00009
                          M         MOVE?WW _A,   R0
                          M         MOVE?BB _A,  R0
000214 C01C F002          M         movff   _A,  R0
                          M         MOVE?BB (_A)  + 1, (R0)   + 1
000218 C01D F003          M         movff   (_A) + 1, (R0) + 1
                          M         MOVE?WWA _B,   R1
                          M         MOVE?BB (_B)  + 1, (R1)   + 1
00021C C01F F005          M         movff   (_B) + 1, (R1) + 1
                          M         MOVE?BA _B
                          M         CHK?RP  _B
                          M     if (((_B)    & 8000h) != PREV_ALT)
                          M       if ((_B)    & 8000h)
                          M         bsf     WDTCON, ADSHR
                          M       else
                          M         bcf     WDTCON, ADSHR
                          M       endif
                          M PREV_ALT = (_B)    & 8000h
                          M     endif
                          M     if ((((_B)    & 0fffh) > BANKA_END) & (((_B)    & 0fffh) < (0f01h + BANKA_END)))
                          M       if (((_B)    & 0f00h) != (PREV_BANK << 8))
                          M         movlb   high (_B)
                          M PREV_BANK = high (_B)
                          M       endif
                          M     endif
000220 501E               M         movf    _B,  W
                          M         L?CALL  CMPLE
                          M         RST?RP
                          M     if (PREV_ALT != 0)
                          M         bcf     WDTCON, ADSHR
                          M PREV_ALT = 0
                          M     endif
                          M     if (PREV_BANK != 0)
                          M         movlb   0
                          M PREV_BANK = 0
                          M     endif
                          M 
                          M     ifdef USE_LINKER
                          M         call    CMPLE
                          M     else
MPASM 5.87          TX_CODE_RESTRUCTURED.ASM   5-23-2023  21:17:45         PAGE 39


LOC  OBJECT CODE     LINE SOURCE TEXT
  VALUE

                          M       if ((CMPLE) < 1)
                          M         call    CMPLE
                          M       else
                          M         if ((CMPLE) > $)
                          M         call    CMPLE
                          M         else
                          M           if ((CMPLE) < ($ - 3ffh))
                          M         call    CMPLE
                          M           else
000222 DF66               M         rcall   CMPLE
                          M           endif
                          M         endif
                          M       endif
                          M     endif
                          M         BIT?GOTO 0, STATUS, Z, L00009
                          M     ifdef USE_LINKER
                          M         CLRWDT?
                          M     else
                          M       if ($ == (L00009))
                          M         CLRWDT?
                          M       endif
                          M     endif
                          M 
                          M     if (((STATUS) > BANKA_END) & ((STATUS) < (0f01h + BANKA_END)))
                          M         bcf     STATUS, OV
                          M         CHK?RP  STATUS
                          M       if ((0)      == 0)
                          M         btfss   STATUS, Z
                          M       else
                          M         btfsc   STATUS, Z
                          M       endif
                          M         bsf     STATUS, OV
                          M         RST?RP
                          M       ifdef USE_LINKER
                          M         btfsc   STATUS, OV
                          M         goto    L00009
                          M       else
                          M         if ((L00009) < 1)
                          M         btfsc   STATUS, OV
                          M         goto    L00009
                          M         else
                          M           if ((L00009) > $)
                          M         btfsc   STATUS, OV
                          M         goto    L00009
                          M           else
                          M             if ((L00009) < ($ - 7fh))
                          M         btfsc   STATUS, OV
                          M         goto    L00009
                          M             else
                          M         bov     L00009
                          M             endif
                          M           endif
                          M         endif
MPASM 5.87          TX_CODE_RESTRUCTURED.ASM   5-23-2023  21:17:45         PAGE 40


LOC  OBJECT CODE     LINE SOURCE TEXT
  VALUE

                          M       endif
                          M     else
                          M         RST?RP
                          M     if (PREV_ALT != 0)
                          M         bcf     WDTCON, ADSHR
                          M PREV_ALT = 0
                          M     endif
                          M     if (PREV_BANK != 0)
                          M         movlb   0
                          M PREV_BANK = 0
                          M     endif
                          M       if ((0)      == 0)
000224 A4D8               M         btfss   STATUS, Z
                          M       else
                          M         btfsc   STATUS, Z
                          M       endif
                          M       ifdef USE_LINKER
                          M         goto    L00009
                          M       else
                          M         if ((L00009) < 1)
                          M         goto    L00009
                          M         else
                          M           if ((L00009) > $)
000226 EF1F F001          M         goto    L00009
                          M           else
                          M             if ((L00009) < ($ - 3ffh))
                          M         goto    L00009
                          M             else
                          M         bra     L00009
                          M             endif
                          M           endif
                          M         endif
                          M       endif
                          M     endif
                      00310 
                      00311 ; C:\USERS\CONNO\DOCUMENTS\4TH YEAR\PROJECT\PIC CODE\TX_CODE_RESTRUCTURED.PBP   00077                   
                            light = (A-B) + light
                      00312         SUB?WWW _A, _B, T1
                          M         MOVE?BA _B
                          M         CHK?RP  _B
                          M     if (((_B)    & 8000h) != PREV_ALT)
                          M       if ((_B)    & 8000h)
                          M         bsf     WDTCON, ADSHR
                          M       else
                          M         bcf     WDTCON, ADSHR
                          M       endif
                          M PREV_ALT = (_B)    & 8000h
                          M     endif
                          M     if ((((_B)    & 0fffh) > BANKA_END) & (((_B)    & 0fffh) < (0f01h + BANKA_END)))
                          M       if (((_B)    & 0f00h) != (PREV_BANK << 8))
                          M         movlb   high (_B)
                          M PREV_BANK = high (_B)
                          M       endif
MPASM 5.87          TX_CODE_RESTRUCTURED.ASM   5-23-2023  21:17:45         PAGE 41


LOC  OBJECT CODE     LINE SOURCE TEXT
  VALUE

                          M     endif
00022A 501E               M         movf    _B,  W
                          M     if ((T1)   == (_A))
                          M         CHK?RP  T1
                          M         subwf   T1,   F
                          M         MOVE?BA (_B)   + 1
                          M         CHK?RP  T1
                          M         subwfb  (T1)   + 1, F
                          M     else
                          M         CHK?RP  _A
                          M     if (((_A)    & 8000h) != PREV_ALT)
                          M       if ((_A)    & 8000h)
                          M         bsf     WDTCON, ADSHR
                          M       else
                          M         bcf     WDTCON, ADSHR
                          M       endif
                          M PREV_ALT = (_A)    & 8000h
                          M     endif
                          M     if ((((_A)    & 0fffh) > BANKA_END) & (((_A)    & 0fffh) < (0f01h + BANKA_END)))
                          M       if (((_A)    & 0f00h) != (PREV_BANK << 8))
                          M         movlb   high (_A)
                          M PREV_BANK = high (_A)
                          M       endif
                          M     endif
00022C 5C1C               M         subwf   _A,   W
                          M         MOVE?AB T1
                          M         CHK?RP  T1
                          M     if (((T1)    & 8000h) != PREV_ALT)
                          M       if ((T1)    & 8000h)
                          M         bsf     WDTCON, ADSHR
                          M       else
                          M         bcf     WDTCON, ADSHR
                          M       endif
                          M PREV_ALT = (T1)    & 8000h
                          M     endif
                          M     if ((((T1)    & 0fffh) > BANKA_END) & (((T1)    & 0fffh) < (0f01h + BANKA_END)))
                          M       if (((T1)    & 0f00h) != (PREV_BANK << 8))
                          M         movlb   high (T1)
                          M PREV_BANK = high (T1)
                          M       endif
                          M     endif
00022E 6E14               M         movwf   T1
                          M         MOVE?BA (_B)   + 1
                          M         CHK?RP  (_B) + 1
                          M     if ((((_B) + 1) & 8000h) != PREV_ALT)
                          M       if (((_B) + 1) & 8000h)
                          M         bsf     WDTCON, ADSHR
                          M       else
                          M         bcf     WDTCON, ADSHR
                          M       endif
                          M PREV_ALT = ((_B) + 1) & 8000h
                          M     endif
                          M     if (((((_B) + 1) & 0fffh) > BANKA_END) & ((((_B) + 1) & 0fffh) < (0f01h + BANKA_END)))
MPASM 5.87          TX_CODE_RESTRUCTURED.ASM   5-23-2023  21:17:45         PAGE 42


LOC  OBJECT CODE     LINE SOURCE TEXT
  VALUE

                          M       if ((((_B) + 1) & 0f00h) != (PREV_BANK << 8))
                          M         movlb   high ((_B) + 1)
                          M PREV_BANK = high ((_B) + 1)
                          M       endif
                          M     endif
000230 501F               M         movf    (_B) + 1, W
                          M         CHK?RP  _A
                          M     if (((_A)    & 8000h) != PREV_ALT)
                          M       if ((_A)    & 8000h)
                          M         bsf     WDTCON, ADSHR
                          M       else
                          M         bcf     WDTCON, ADSHR
                          M       endif
                          M PREV_ALT = (_A)    & 8000h
                          M     endif
                          M     if ((((_A)    & 0fffh) > BANKA_END) & (((_A)    & 0fffh) < (0f01h + BANKA_END)))
                          M       if (((_A)    & 0f00h) != (PREV_BANK << 8))
                          M         movlb   high (_A)
                          M PREV_BANK = high (_A)
                          M       endif
                          M     endif
000232 581D               M         subwfb  (_A)   + 1, W
                          M         MOVE?AB (T1)   + 1
                          M         CHK?RP  (T1) + 1
                          M     if ((((T1) + 1) & 8000h) != PREV_ALT)
                          M       if (((T1) + 1) & 8000h)
                          M         bsf     WDTCON, ADSHR
                          M       else
                          M         bcf     WDTCON, ADSHR
                          M       endif
                          M PREV_ALT = ((T1) + 1) & 8000h
                          M     endif
                          M     if (((((T1) + 1) & 0fffh) > BANKA_END) & ((((T1) + 1) & 0fffh) < (0f01h + BANKA_END)))
                          M       if ((((T1) + 1) & 0f00h) != (PREV_BANK << 8))
                          M         movlb   high ((T1) + 1)
                          M PREV_BANK = high ((T1) + 1)
                          M       endif
                          M     endif
000234 6E15               M         movwf   (T1) + 1
                          M     endif
                      00313         ADD?WWW T1, _light, _light
                          M     if ((_light) == (T1))
                          M         MOVE?BA _light
                          M         CHK?RP  _light
                          M         addwf   _light, F
                          M         MOVE?BA (_light) + 1
                          M         CHK?RP  _light
                          M         addwfc  (_light) + 1, F
                          M     else
                          M       if ((_light) == (_light))
                          M         MOVE?BA T1
                          M         CHK?RP  T1
                          M     if (((T1)    & 8000h) != PREV_ALT)
MPASM 5.87          TX_CODE_RESTRUCTURED.ASM   5-23-2023  21:17:45         PAGE 43


LOC  OBJECT CODE     LINE SOURCE TEXT
  VALUE

                          M       if ((T1)    & 8000h)
                          M         bsf     WDTCON, ADSHR
                          M       else
                          M         bcf     WDTCON, ADSHR
                          M       endif
                          M PREV_ALT = (T1)    & 8000h
                          M     endif
                          M     if ((((T1)    & 0fffh) > BANKA_END) & (((T1)    & 0fffh) < (0f01h + BANKA_END)))
                          M       if (((T1)    & 0f00h) != (PREV_BANK << 8))
                          M         movlb   high (T1)
                          M PREV_BANK = high (T1)
                          M       endif
                          M     endif
000236 5014               M         movf    T1,  W
                          M         CHK?RP  _light
                          M     if (((_light) & 8000h) != PREV_ALT)
                          M       if ((_light) & 8000h)
                          M         bsf     WDTCON, ADSHR
                          M       else
                          M         bcf     WDTCON, ADSHR
                          M       endif
                          M PREV_ALT = (_light) & 8000h
                          M     endif
                          M     if ((((_light) & 0fffh) > BANKA_END) & (((_light) & 0fffh) < (0f01h + BANKA_END)))
                          M       if (((_light) & 0f00h) != (PREV_BANK << 8))
                          M         movlb   high (_light)
                          M PREV_BANK = high (_light)
                          M       endif
                          M     endif
000238 2620               M         addwf   _light, F
                          M         MOVE?BA (T1)   + 1
                          M         CHK?RP  (T1) + 1
                          M     if ((((T1) + 1) & 8000h) != PREV_ALT)
                          M       if (((T1) + 1) & 8000h)
                          M         bsf     WDTCON, ADSHR
                          M       else
                          M         bcf     WDTCON, ADSHR
                          M       endif
                          M PREV_ALT = ((T1) + 1) & 8000h
                          M     endif
                          M     if (((((T1) + 1) & 0fffh) > BANKA_END) & ((((T1) + 1) & 0fffh) < (0f01h + BANKA_END)))
                          M       if ((((T1) + 1) & 0f00h) != (PREV_BANK << 8))
                          M         movlb   high ((T1) + 1)
                          M PREV_BANK = high ((T1) + 1)
                          M       endif
                          M     endif
00023A 5015               M         movf    (T1) + 1, W
                          M         CHK?RP  _light
                          M     if (((_light) & 8000h) != PREV_ALT)
                          M       if ((_light) & 8000h)
                          M         bsf     WDTCON, ADSHR
                          M       else
                          M         bcf     WDTCON, ADSHR
MPASM 5.87          TX_CODE_RESTRUCTURED.ASM   5-23-2023  21:17:45         PAGE 44


LOC  OBJECT CODE     LINE SOURCE TEXT
  VALUE

                          M       endif
                          M PREV_ALT = (_light) & 8000h
                          M     endif
                          M     if ((((_light) & 0fffh) > BANKA_END) & (((_light) & 0fffh) < (0f01h + BANKA_END)))
                          M       if (((_light) & 0f00h) != (PREV_BANK << 8))
                          M         movlb   high (_light)
                          M PREV_BANK = high (_light)
                          M       endif
                          M     endif
00023C 2221               M         addwfc  (_light) + 1, F
                          M       else
                          M         MOVE?BA T1
                          M         CHK?RP  _light
                          M         addwf   _light, W
                          M         MOVE?AB _light
                          M         MOVE?BA (T1)   + 1
                          M         CHK?RP  _light
                          M         addwfc  (_light) + 1, W
                          M         MOVE?AB (_light) + 1
                          M       endif
                          M     endif
                      00314 
                      00315 ; C:\USERS\CONNO\DOCUMENTS\4TH YEAR\PROJECT\PIC CODE\TX_CODE_RESTRUCTURED.PBP   00078               endi
                            f 
                      00316         LABEL?L L00009  
                          M         RST?RP
                          M     if (PREV_ALT != 0)
                          M         bcf     WDTCON, ADSHR
                          M PREV_ALT = 0
                          M     endif
                          M     if (PREV_BANK != 0)
                          M         movlb   0
                          M PREV_BANK = 0
                          M     endif
                          M     ifdef PM_USED
                          M         LALL
                          M L00009
                          M         XALL
                          M     else
00023E                    M L00009
                          M     endif
                      00317 
                      00318 ; C:\USERS\CONNO\DOCUMENTS\4TH YEAR\PROJECT\PIC CODE\TX_CODE_RESTRUCTURED.PBP   00079           wend
                      00319         GOTO?L  L00007
                          M         L?GOTO  L00007
                          M     ifdef USE_LINKER
                          M         CLRWDT?
                          M     else
                          M       if ($ == (L00007))
                          M         CLRWDT?
                          M       endif
                          M     endif
                          M 
MPASM 5.87          TX_CODE_RESTRUCTURED.ASM   5-23-2023  21:17:45         PAGE 45


LOC  OBJECT CODE     LINE SOURCE TEXT
  VALUE

                          M         RST?RP
                          M     if (PREV_ALT != 0)
                          M         bcf     WDTCON, ADSHR
                          M PREV_ALT = 0
                          M     endif
                          M     if (PREV_BANK != 0)
                          M         movlb   0
                          M PREV_BANK = 0
                          M     endif
                          M 
                          M     ifdef USE_LINKER
                          M         goto    L00007
                          M     else
                          M       if ((L00007) < 1)
                          M         goto    L00007
                          M       else
                          M         if ((L00007) > $)
                          M         goto    L00007
                          M         else
                          M           if ((L00007) < ($ - 3ffh))
                          M         goto    L00007
                          M           else
00023E D7E1               M         bra     L00007
                          M           endif
                          M         endif
                          M       endif
                          M     endif
                      00320         LABEL?L L00008  
                          M         RST?RP
                          M     if (PREV_ALT != 0)
                          M         bcf     WDTCON, ADSHR
                          M PREV_ALT = 0
                          M     endif
                          M     if (PREV_BANK != 0)
                          M         movlb   0
                          M PREV_BANK = 0
                          M     endif
                          M     ifdef PM_USED
                          M         LALL
                          M L00008
                          M         XALL
                          M     else
000240                    M L00008
                          M     endif
                      00321 
                      00322 ; C:\USERS\CONNO\DOCUMENTS\4TH YEAR\PROJECT\PIC CODE\TX_CODE_RESTRUCTURED.PBP   00080           light= l
                            ight/cycles 
                      00323         DIV?WCW _light, _cycles, _light
                          M     if ((_cycles) == 2)
                          M         bcf     STATUS, C
                          M       if ((_light) == (_light))
                          M         CHK?RP  _light
                          M         rrcf    (_light) + 1, F
MPASM 5.87          TX_CODE_RESTRUCTURED.ASM   5-23-2023  21:17:45         PAGE 46


LOC  OBJECT CODE     LINE SOURCE TEXT
  VALUE

                          M         rrcf    _light, F
                          M       else
                          M         CHK?RP  _light
                          M         rrcf    (_light) + 1, W
                          M         MOVE?AB (_light) + 1
                          M         CHK?RP  _light
                          M         rrcf    _light, W
                          M         MOVE?AB _light
                          M       endif
                          M     else
                          M         MOVE?WW _light, R0
                          M         MOVE?BB _light, R0
000240 C020 F002          M         movff   _light, R0
                          M         MOVE?BB (_light) + 1, (R0) + 1
000244 C021 F003          M         movff   (_light) + 1, (R0) + 1
                          M         MOVE?CW _cycles, R1
                          M     ifdef USE_LINKER
                          M         CHK?RP  R1
                          M         movlw   low (_cycles)
                          M         movwf   R1
                          M         movlw   high (_cycles)
                          M         movwf   (R1)   + 1
                          M     else
                          M         MOVE?CB low (_cycles), R1
                          M         CHK?RP  R1
                          M     if (((R1)    & 8000h) != PREV_ALT)
                          M       if ((R1)    & 8000h)
                          M         bsf     WDTCON, ADSHR
                          M       else
                          M         bcf     WDTCON, ADSHR
                          M       endif
                          M PREV_ALT = (R1)    & 8000h
                          M     endif
                          M     if ((((R1)    & 0fffh) > BANKA_END) & (((R1)    & 0fffh) < (0f01h + BANKA_END)))
                          M       if (((R1)    & 0f00h) != (PREV_BANK << 8))
                          M         movlb   high (R1)
                          M PREV_BANK = high (R1)
                          M       endif
                          M     endif
                          M     if (low (low (_cycles)) == 0)
                          M         clrf    R1
                          M     else
                          M       if (low (low (_cycles)) == 255)
                          M         setf    R1
                          M       else
000248 0E3C               M         movlw   low (low (_cycles))
00024A 6E04               M         movwf   R1
                          M       endif
                          M     endif
                          M         MOVE?CB high (_cycles), (R1) + 1
                          M         CHK?RP  (R1) + 1
                          M     if ((((R1) + 1) & 8000h) != PREV_ALT)
                          M       if (((R1) + 1) & 8000h)
MPASM 5.87          TX_CODE_RESTRUCTURED.ASM   5-23-2023  21:17:45         PAGE 47


LOC  OBJECT CODE     LINE SOURCE TEXT
  VALUE

                          M         bsf     WDTCON, ADSHR
                          M       else
                          M         bcf     WDTCON, ADSHR
                          M       endif
                          M PREV_ALT = ((R1) + 1) & 8000h
                          M     endif
                          M     if (((((R1) + 1) & 0fffh) > BANKA_END) & ((((R1) + 1) & 0fffh) < (0f01h + BANKA_END)))
                          M       if ((((R1) + 1) & 0f00h) != (PREV_BANK << 8))
                          M         movlb   high ((R1) + 1)
                          M PREV_BANK = high ((R1) + 1)
                          M       endif
                          M     endif
                          M     if (low (high (_cycles)) == 0)
00024C 6A05               M         clrf    (R1) + 1
                          M     else
                          M       if (low (high (_cycles)) == 255)
                          M         setf    (R1) + 1
                          M       else
                          M         movlw   low (high (_cycles))
                          M         movwf   (R1) + 1
                          M       endif
                          M     endif
                          M     endif
                          M         L?CALL  DIV
                          M         RST?RP
                          M     if (PREV_ALT != 0)
                          M         bcf     WDTCON, ADSHR
                          M PREV_ALT = 0
                          M     endif
                          M     if (PREV_BANK != 0)
                          M         movlb   0
                          M PREV_BANK = 0
                          M     endif
                          M 
                          M     ifdef USE_LINKER
                          M         call    DIV
                          M     else
                          M       if ((DIV)   < 1)
                          M         call    DIV
                          M       else
                          M         if ((DIV)   > $)
                          M         call    DIV
                          M         else
                          M           if ((DIV)   < ($ - 3ffh))
                          M         call    DIV
                          M           else
00024E DF66               M         rcall   DIV
                          M           endif
                          M         endif
                          M       endif
                          M     endif
                          M         MOVE?AWW R0, _light
                          M         MOVE?AB _light
MPASM 5.87          TX_CODE_RESTRUCTURED.ASM   5-23-2023  21:17:45         PAGE 48


LOC  OBJECT CODE     LINE SOURCE TEXT
  VALUE

                          M         CHK?RP  _light
                          M     if (((_light) & 8000h) != PREV_ALT)
                          M       if ((_light) & 8000h)
                          M         bsf     WDTCON, ADSHR
                          M       else
                          M         bcf     WDTCON, ADSHR
                          M       endif
                          M PREV_ALT = (_light) & 8000h
                          M     endif
                          M     if ((((_light) & 0fffh) > BANKA_END) & (((_light) & 0fffh) < (0f01h + BANKA_END)))
                          M       if (((_light) & 0f00h) != (PREV_BANK << 8))
                          M         movlb   high (_light)
                          M PREV_BANK = high (_light)
                          M       endif
                          M     endif
000250 6E20               M         movwf   _light
                          M         MOVE?BB (R0)  + 1, (_light) + 1
000252 C003 F021          M         movff   (R0) + 1, (_light) + 1
                          M     endif
                      00324 
                      00325 ; C:\USERS\CONNO\DOCUMENTS\4TH YEAR\PROJECT\PIC CODE\TX_CODE_RESTRUCTURED.PBP   00081           lightA=l
                            ight
                      00326         MOVE?WB _light, _lightA
                          M         MOVE?BB _light, _lightA
000256 C020 F029          M         movff   _light, _lightA
                      00327 
                      00328 ; C:\USERS\CONNO\DOCUMENTS\4TH YEAR\PROJECT\PIC CODE\TX_CODE_RESTRUCTURED.PBP   00082           lightB=l
                            ight>>8
                      00329         SHIFTR?WCB      _light, 008h, _lightB
                          M     if ((008h) == 1)
                          M         CHK?RP  _light
                          M         rrcf    _light + 1, W
                          M         rrcf    _light, W
                          M         MOVE?AB _lightB
                          M     else
                          M         MOVE?WW _light, R0
                          M         MOVE?BB _light, R0
00025A C020 F002          M         movff   _light, R0
                          M         MOVE?BB (_light) + 1, (R0) + 1
00025E C021 F003          M         movff   (_light) + 1, (R0) + 1
000262 0E08               M         movlw   008h
                          M         L?CALL  SHIFTR
                          M         RST?RP
                          M     if (PREV_ALT != 0)
                          M         bcf     WDTCON, ADSHR
                          M PREV_ALT = 0
                          M     endif
                          M     if (PREV_BANK != 0)
                          M         movlb   0
                          M PREV_BANK = 0
                          M     endif
                          M 
                          M     ifdef USE_LINKER
MPASM 5.87          TX_CODE_RESTRUCTURED.ASM   5-23-2023  21:17:45         PAGE 49


LOC  OBJECT CODE     LINE SOURCE TEXT
  VALUE

                          M         call    SHIFTR
                          M     else
                          M       if ((SHIFTR) < 1)
                          M         call    SHIFTR
                          M       else
                          M         if ((SHIFTR) > $)
                          M         call    SHIFTR
                          M         else
                          M           if ((SHIFTR) < ($ - 3ffh))
                          M         call    SHIFTR
                          M           else
000264 DF40               M         rcall   SHIFTR
                          M           endif
                          M         endif
                          M       endif
                          M     endif
                          M         MOVE?AB _lightB
                          M         CHK?RP  _lightB
                          M     if (((_lightB) & 8000h) != PREV_ALT)
                          M       if ((_lightB) & 8000h)
                          M         bsf     WDTCON, ADSHR
                          M       else
                          M         bcf     WDTCON, ADSHR
                          M       endif
                          M PREV_ALT = (_lightB) & 8000h
                          M     endif
                          M     if ((((_lightB) & 0fffh) > BANKA_END) & (((_lightB) & 0fffh) < (0f01h + BANKA_END)))
                          M       if (((_lightB) & 0f00h) != (PREV_BANK << 8))
                          M         movlb   high (_lightB)
                          M PREV_BANK = high (_lightB)
                          M       endif
                          M     endif
000266 6E2A               M         movwf   _lightB
                          M     endif
                      00330 
                      00331 ; C:\USERS\CONNO\DOCUMENTS\4TH YEAR\PROJECT\PIC CODE\TX_CODE_RESTRUCTURED.PBP   00083           tempA=te
                            mp
                      00332         MOVE?WB _temp, _tempA
                          M         MOVE?BB _temp, _tempA
000268 C022 F02B          M         movff   _temp, _tempA
                      00333 
                      00334 ; C:\USERS\CONNO\DOCUMENTS\4TH YEAR\PROJECT\PIC CODE\TX_CODE_RESTRUCTURED.PBP   00084           tempB=te
                            mp>>8
                      00335         SHIFTR?WCB      _temp, 008h, _tempB
                          M     if ((008h) == 1)
                          M         CHK?RP  _temp
                          M         rrcf    _temp + 1, W
                          M         rrcf    _temp, W
                          M         MOVE?AB _tempB
                          M     else
                          M         MOVE?WW _temp, R0
                          M         MOVE?BB _temp, R0
00026C C022 F002          M         movff   _temp, R0
MPASM 5.87          TX_CODE_RESTRUCTURED.ASM   5-23-2023  21:17:45         PAGE 50


LOC  OBJECT CODE     LINE SOURCE TEXT
  VALUE

                          M         MOVE?BB (_temp) + 1, (R0) + 1
000270 C023 F003          M         movff   (_temp) + 1, (R0) + 1
000274 0E08               M         movlw   008h
                          M         L?CALL  SHIFTR
                          M         RST?RP
                          M     if (PREV_ALT != 0)
                          M         bcf     WDTCON, ADSHR
                          M PREV_ALT = 0
                          M     endif
                          M     if (PREV_BANK != 0)
                          M         movlb   0
                          M PREV_BANK = 0
                          M     endif
                          M 
                          M     ifdef USE_LINKER
                          M         call    SHIFTR
                          M     else
                          M       if ((SHIFTR) < 1)
                          M         call    SHIFTR
                          M       else
                          M         if ((SHIFTR) > $)
                          M         call    SHIFTR
                          M         else
                          M           if ((SHIFTR) < ($ - 3ffh))
                          M         call    SHIFTR
                          M           else
000276 DF37               M         rcall   SHIFTR
                          M           endif
                          M         endif
                          M       endif
                          M     endif
                          M         MOVE?AB _tempB
                          M         CHK?RP  _tempB
                          M     if (((_tempB) & 8000h) != PREV_ALT)
                          M       if ((_tempB) & 8000h)
                          M         bsf     WDTCON, ADSHR
                          M       else
                          M         bcf     WDTCON, ADSHR
                          M       endif
                          M PREV_ALT = (_tempB) & 8000h
                          M     endif
                          M     if ((((_tempB) & 0fffh) > BANKA_END) & (((_tempB) & 0fffh) < (0f01h + BANKA_END)))
                          M       if (((_tempB) & 0f00h) != (PREV_BANK << 8))
                          M         movlb   high (_tempB)
                          M PREV_BANK = high (_tempB)
                          M       endif
                          M     endif
000278 6E2C               M         movwf   _tempB
                          M     endif
                      00336 
                      00337 ; C:\USERS\CONNO\DOCUMENTS\4TH YEAR\PROJECT\PIC CODE\TX_CODE_RESTRUCTURED.PBP   00085           voltsA=v
                            olts
                      00338         MOVE?WB _volts, _voltsA
MPASM 5.87          TX_CODE_RESTRUCTURED.ASM   5-23-2023  21:17:45         PAGE 51


LOC  OBJECT CODE     LINE SOURCE TEXT
  VALUE

                          M         MOVE?BB _volts, _voltsA
00027A C026 F02D          M         movff   _volts, _voltsA
                      00339 
                      00340 ; C:\USERS\CONNO\DOCUMENTS\4TH YEAR\PROJECT\PIC CODE\TX_CODE_RESTRUCTURED.PBP   00086           voltsB=v
                            olts>>8
                      00341         SHIFTR?WCB      _volts, 008h, _voltsB
                          M     if ((008h) == 1)
                          M         CHK?RP  _volts
                          M         rrcf    _volts + 1, W
                          M         rrcf    _volts, W
                          M         MOVE?AB _voltsB
                          M     else
                          M         MOVE?WW _volts, R0
                          M         MOVE?BB _volts, R0
00027E C026 F002          M         movff   _volts, R0
                          M         MOVE?BB (_volts) + 1, (R0) + 1
000282 C027 F003          M         movff   (_volts) + 1, (R0) + 1
000286 0E08               M         movlw   008h
                          M         L?CALL  SHIFTR
                          M         RST?RP
                          M     if (PREV_ALT != 0)
                          M         bcf     WDTCON, ADSHR
                          M PREV_ALT = 0
                          M     endif
                          M     if (PREV_BANK != 0)
                          M         movlb   0
                          M PREV_BANK = 0
                          M     endif
                          M 
                          M     ifdef USE_LINKER
                          M         call    SHIFTR
                          M     else
                          M       if ((SHIFTR) < 1)
                          M         call    SHIFTR
                          M       else
                          M         if ((SHIFTR) > $)
                          M         call    SHIFTR
                          M         else
                          M           if ((SHIFTR) < ($ - 3ffh))
                          M         call    SHIFTR
                          M           else
000288 DF2E               M         rcall   SHIFTR
                          M           endif
                          M         endif
                          M       endif
                          M     endif
                          M         MOVE?AB _voltsB
                          M         CHK?RP  _voltsB
                          M     if (((_voltsB) & 8000h) != PREV_ALT)
                          M       if ((_voltsB) & 8000h)
                          M         bsf     WDTCON, ADSHR
                          M       else
                          M         bcf     WDTCON, ADSHR
MPASM 5.87          TX_CODE_RESTRUCTURED.ASM   5-23-2023  21:17:45         PAGE 52


LOC  OBJECT CODE     LINE SOURCE TEXT
  VALUE

                          M       endif
                          M PREV_ALT = (_voltsB) & 8000h
                          M     endif
                          M     if ((((_voltsB) & 0fffh) > BANKA_END) & (((_voltsB) & 0fffh) < (0f01h + BANKA_END)))
                          M       if (((_voltsB) & 0f00h) != (PREV_BANK << 8))
                          M         movlb   high (_voltsB)
                          M PREV_BANK = high (_voltsB)
                          M       endif
                          M     endif
00028A 6E2E               M         movwf   _voltsB
                          M     endif
                      00342 
                      00343 ; C:\USERS\CONNO\DOCUMENTS\4TH YEAR\PROJECT\PIC CODE\TX_CODE_RESTRUCTURED.PBP   00087           gosub se
                            nd_nothing
                      00344         GOSUB?L _send_nothing
  0000                    M     local dlabel
                          M     ifdef DEBUG_STACK
                          M         CHK?RP  DEBUG_STACK
                          M       ifdef DEBUG_STACK_ADDR
                          M         bcf     STATUS, C
                          M         rlcf    DEBUG_STACK, W
                          M         addlw   DEBUG_STACK_ADDR
                          M         movwf   FSR0L
                          M         clrf    FSR0H
                          M         movlw   low (dlabel)
                          M         movwf   POSTINC0
                          M         movlw   high (dlabel)
                          M         movwf   INDF0
                          M       endif
                          M         incf    DEBUG_STACK, F
                          M     endif
                          M         L?CALL  _send_nothing
                          M         RST?RP
                          M     if (PREV_ALT != 0)
                          M         bcf     WDTCON, ADSHR
                          M PREV_ALT = 0
                          M     endif
                          M     if (PREV_BANK != 0)
                          M         movlb   0
                          M PREV_BANK = 0
                          M     endif
                          M 
                          M     ifdef USE_LINKER
                          M         call    _send_nothing
                          M     else
                          M       if ((_send_nothing) < 1)
                          M         call    _send_nothing
                          M       else
                          M         if ((_send_nothing) > $)
00028C EC70 F001          M         call    _send_nothing
                          M         else
                          M           if ((_send_nothing) < ($ - 3ffh))
                          M         call    _send_nothing
MPASM 5.87          TX_CODE_RESTRUCTURED.ASM   5-23-2023  21:17:45         PAGE 53


LOC  OBJECT CODE     LINE SOURCE TEXT
  VALUE

                          M           else
                          M         rcall   _send_nothing
                          M           endif
                          M         endif
                          M       endif
                          M     endif
000290                    M dlabel
                      00345 
                      00346 ; C:\USERS\CONNO\DOCUMENTS\4TH YEAR\PROJECT\PIC CODE\TX_CODE_RESTRUCTURED.PBP   00088           pause 75
                      00347         PAUSE?C 04Bh
                          M     if (((04Bh) >> 8) == 0)
                          M         MOVE?CA 04Bh
000290 0E4B               M         movlw   low (04Bh)
                          M         L?CALL  PAUSE
                          M         RST?RP
                          M     if (PREV_ALT != 0)
                          M         bcf     WDTCON, ADSHR
                          M PREV_ALT = 0
                          M     endif
                          M     if (PREV_BANK != 0)
                          M         movlb   0
                          M PREV_BANK = 0
                          M     endif
                          M 
                          M     ifdef USE_LINKER
                          M         call    PAUSE
                          M     else
                          M       if ((PAUSE) < 1)
                          M         call    PAUSE
                          M       else
                          M         if ((PAUSE) > $)
                          M         call    PAUSE
                          M         else
                          M           if ((PAUSE) < ($ - 3ffh))
                          M         call    PAUSE
                          M           else
000292 DEF7               M         rcall   PAUSE
                          M           endif
                          M         endif
                          M       endif
                          M     endif
                          M     else
                          M         MOVE?CB (04Bh) >> 8, R1 + 1
                          M         MOVE?CA low (04Bh)
                          M         L?CALL  PAUSEL
                          M     endif
                      00348 
                      00349 ; C:\USERS\CONNO\DOCUMENTS\4TH YEAR\PROJECT\PIC CODE\TX_CODE_RESTRUCTURED.PBP   00090           gosub se
                            nd    
                      00350         GOSUB?L _send
  0000                    M     local dlabel
                          M     ifdef DEBUG_STACK
                          M         CHK?RP  DEBUG_STACK
MPASM 5.87          TX_CODE_RESTRUCTURED.ASM   5-23-2023  21:17:45         PAGE 54


LOC  OBJECT CODE     LINE SOURCE TEXT
  VALUE

                          M       ifdef DEBUG_STACK_ADDR
                          M         bcf     STATUS, C
                          M         rlcf    DEBUG_STACK, W
                          M         addlw   DEBUG_STACK_ADDR
                          M         movwf   FSR0L
                          M         clrf    FSR0H
                          M         movlw   low (dlabel)
                          M         movwf   POSTINC0
                          M         movlw   high (dlabel)
                          M         movwf   INDF0
                          M       endif
                          M         incf    DEBUG_STACK, F
                          M     endif
                          M         L?CALL  _send
                          M         RST?RP
                          M     if (PREV_ALT != 0)
                          M         bcf     WDTCON, ADSHR
                          M PREV_ALT = 0
                          M     endif
                          M     if (PREV_BANK != 0)
                          M         movlb   0
                          M PREV_BANK = 0
                          M     endif
                          M 
                          M     ifdef USE_LINKER
                          M         call    _send
                          M     else
                          M       if ((_send) < 1)
                          M         call    _send
                          M       else
                          M         if ((_send) > $)
000294 EC57 F001          M         call    _send
                          M         else
                          M           if ((_send) < ($ - 3ffh))
                          M         call    _send
                          M           else
                          M         rcall   _send
                          M           endif
                          M         endif
                          M       endif
                          M     endif
000298                    M dlabel
                      00351 
                      00352 ; C:\USERS\CONNO\DOCUMENTS\4TH YEAR\PROJECT\PIC CODE\TX_CODE_RESTRUCTURED.PBP   00092       else
                      00353         GOTO?L  L00006
                          M         L?GOTO  L00006
                          M     ifdef USE_LINKER
                          M         CLRWDT?
                          M     else
                          M       if ($ == (L00006))
                          M         CLRWDT?
                          M       endif
                          M     endif
MPASM 5.87          TX_CODE_RESTRUCTURED.ASM   5-23-2023  21:17:45         PAGE 55


LOC  OBJECT CODE     LINE SOURCE TEXT
  VALUE

                          M 
                          M         RST?RP
                          M     if (PREV_ALT != 0)
                          M         bcf     WDTCON, ADSHR
                          M PREV_ALT = 0
                          M     endif
                          M     if (PREV_BANK != 0)
                          M         movlb   0
                          M PREV_BANK = 0
                          M     endif
                          M 
                          M     ifdef USE_LINKER
                          M         goto    L00006
                          M     else
                          M       if ((L00006) < 1)
                          M         goto    L00006
                          M       else
                          M         if ((L00006) > $)
000298 EF54 F001          M         goto    L00006
                          M         else
                          M           if ((L00006) < ($ - 3ffh))
                          M         goto    L00006
                          M           else
                          M         bra     L00006
                          M           endif
                          M         endif
                          M       endif
                          M     endif
                      00354         LABEL?L L00005  
                          M         RST?RP
                          M     if (PREV_ALT != 0)
                          M         bcf     WDTCON, ADSHR
                          M PREV_ALT = 0
                          M     endif
                          M     if (PREV_BANK != 0)
                          M         movlb   0
                          M PREV_BANK = 0
                          M     endif
                          M     ifdef PM_USED
                          M         LALL
                          M L00005
                          M         XALL
                          M     else
00029C                    M L00005
                          M     endif
                      00355 
                      00356 ; C:\USERS\CONNO\DOCUMENTS\4TH YEAR\PROJECT\PIC CODE\TX_CODE_RESTRUCTURED.PBP   00093           gosub se
                            nd_nothing
                      00357         GOSUB?L _send_nothing
  0000                    M     local dlabel
                          M     ifdef DEBUG_STACK
                          M         CHK?RP  DEBUG_STACK
                          M       ifdef DEBUG_STACK_ADDR
MPASM 5.87          TX_CODE_RESTRUCTURED.ASM   5-23-2023  21:17:45         PAGE 56


LOC  OBJECT CODE     LINE SOURCE TEXT
  VALUE

                          M         bcf     STATUS, C
                          M         rlcf    DEBUG_STACK, W
                          M         addlw   DEBUG_STACK_ADDR
                          M         movwf   FSR0L
                          M         clrf    FSR0H
                          M         movlw   low (dlabel)
                          M         movwf   POSTINC0
                          M         movlw   high (dlabel)
                          M         movwf   INDF0
                          M       endif
                          M         incf    DEBUG_STACK, F
                          M     endif
                          M         L?CALL  _send_nothing
                          M         RST?RP
                          M     if (PREV_ALT != 0)
                          M         bcf     WDTCON, ADSHR
                          M PREV_ALT = 0
                          M     endif
                          M     if (PREV_BANK != 0)
                          M         movlb   0
                          M PREV_BANK = 0
                          M     endif
                          M 
                          M     ifdef USE_LINKER
                          M         call    _send_nothing
                          M     else
                          M       if ((_send_nothing) < 1)
                          M         call    _send_nothing
                          M       else
                          M         if ((_send_nothing) > $)
00029C EC70 F001          M         call    _send_nothing
                          M         else
                          M           if ((_send_nothing) < ($ - 3ffh))
                          M         call    _send_nothing
                          M           else
                          M         rcall   _send_nothing
                          M           endif
                          M         endif
                          M       endif
                          M     endif
0002A0                    M dlabel
                      00358 
                      00359 ; C:\USERS\CONNO\DOCUMENTS\4TH YEAR\PROJECT\PIC CODE\TX_CODE_RESTRUCTURED.PBP   00094           time=tim
                            e+4
                      00360         ADD?WCW _time, 004h, _time
                          M     if ((_time) == (_time))
                          M         CHK?RP  _time
                          M     if (((_time) & 8000h) != PREV_ALT)
                          M       if ((_time) & 8000h)
                          M         bsf     WDTCON, ADSHR
                          M       else
                          M         bcf     WDTCON, ADSHR
                          M       endif
MPASM 5.87          TX_CODE_RESTRUCTURED.ASM   5-23-2023  21:17:45         PAGE 57


LOC  OBJECT CODE     LINE SOURCE TEXT
  VALUE

                          M PREV_ALT = (_time) & 8000h
                          M     endif
                          M     if ((((_time) & 0fffh) > BANKA_END) & (((_time) & 0fffh) < (0f01h + BANKA_END)))
                          M       if (((_time) & 0f00h) != (PREV_BANK << 8))
                          M         movlb   high (_time)
                          M PREV_BANK = high (_time)
                          M       endif
                          M     endif
                          M       if ((004h) == 1)
                          M         incf    _time, F
                          M       else  
0002A0 0E04               M         movlw   low (004h)
0002A2 2624               M         addwf   _time, F
                          M       endif
0002A4 0E00               M         movlw   (004h) >> 8
0002A6 2225               M         addwfc  (_time) + 1, F
                          M     else
                          M         CHK?RP  _time
                          M       if ((004h) == 1)
                          M         incf    _time, W
                          M       else
                          M         movlw   low (004h)
                          M         addwf   _time, W
                          M       endif
                          M         MOVE?AB _time
                          M         movlw   (004h) >> 8
                          M         CHK?RP  _time
                          M         addwfc  (_time) + 1, W
                          M         MOVE?AB (_time) + 1
                          M     endif
                      00361 
                      00362 ; C:\USERS\CONNO\DOCUMENTS\4TH YEAR\PROJECT\PIC CODE\TX_CODE_RESTRUCTURED.PBP   00095       endif   
                      00363         LABEL?L L00006  
                          M         RST?RP
                          M     if (PREV_ALT != 0)
                          M         bcf     WDTCON, ADSHR
                          M PREV_ALT = 0
                          M     endif
                          M     if (PREV_BANK != 0)
                          M         movlb   0
                          M PREV_BANK = 0
                          M     endif
                          M     ifdef PM_USED
                          M         LALL
                          M L00006
                          M         XALL
                          M     else
0002A8                    M L00006
                          M     endif
                      00364 
                      00365 ; C:\USERS\CONNO\DOCUMENTS\4TH YEAR\PROJECT\PIC CODE\TX_CODE_RESTRUCTURED.PBP   00097       pause 75
                      00366         PAUSE?C 04Bh
                          M     if (((04Bh) >> 8) == 0)
MPASM 5.87          TX_CODE_RESTRUCTURED.ASM   5-23-2023  21:17:45         PAGE 58


LOC  OBJECT CODE     LINE SOURCE TEXT
  VALUE

                          M         MOVE?CA 04Bh
0002A8 0E4B               M         movlw   low (04Bh)
                          M         L?CALL  PAUSE
                          M         RST?RP
                          M     if (PREV_ALT != 0)
                          M         bcf     WDTCON, ADSHR
                          M PREV_ALT = 0
                          M     endif
                          M     if (PREV_BANK != 0)
                          M         movlb   0
                          M PREV_BANK = 0
                          M     endif
                          M 
                          M     ifdef USE_LINKER
                          M         call    PAUSE
                          M     else
                          M       if ((PAUSE) < 1)
                          M         call    PAUSE
                          M       else
                          M         if ((PAUSE) > $)
                          M         call    PAUSE
                          M         else
                          M           if ((PAUSE) < ($ - 3ffh))
                          M         call    PAUSE
                          M           else
0002AA DEEB               M         rcall   PAUSE
                          M           endif
                          M         endif
                          M       endif
                          M     endif
                          M     else
                          M         MOVE?CB (04Bh) >> 8, R1 + 1
                          M         MOVE?CA low (04Bh)
                          M         L?CALL  PAUSEL
                          M     endif
                      00367 
                      00368 ; C:\USERS\CONNO\DOCUMENTS\4TH YEAR\PROJECT\PIC CODE\TX_CODE_RESTRUCTURED.PBP   00098       goto cycle
                      00369         GOTO?L  _cycle
                          M         L?GOTO  _cycle
                          M     ifdef USE_LINKER
                          M         CLRWDT?
                          M     else
                          M       if ($ == (_cycle))
                          M         CLRWDT?
                          M       endif
                          M     endif
                          M 
                          M         RST?RP
                          M     if (PREV_ALT != 0)
                          M         bcf     WDTCON, ADSHR
                          M PREV_ALT = 0
                          M     endif
                          M     if (PREV_BANK != 0)
MPASM 5.87          TX_CODE_RESTRUCTURED.ASM   5-23-2023  21:17:45         PAGE 59


LOC  OBJECT CODE     LINE SOURCE TEXT
  VALUE

                          M         movlb   0
                          M PREV_BANK = 0
                          M     endif
                          M 
                          M     ifdef USE_LINKER
                          M         goto    _cycle
                          M     else
                          M       if ((_cycle) < 1)
                          M         goto    _cycle
                          M       else
                          M         if ((_cycle) > $)
                          M         goto    _cycle
                          M         else
                          M           if ((_cycle) < ($ - 3ffh))
                          M         goto    _cycle
                          M           else
0002AC D77F               M         bra     _cycle
                          M           endif
                          M         endif
                          M       endif
                          M     endif
                      00370 
                      00371 ; C:\USERS\CONNO\DOCUMENTS\4TH YEAR\PROJECT\PIC CODE\TX_CODE_RESTRUCTURED.PBP   00101   send:           
                                         'sends data in 8 bit numbers
                      00372 
                      00373         LABEL?L _send   
                          M         RST?RP
                          M     if (PREV_ALT != 0)
                          M         bcf     WDTCON, ADSHR
                          M PREV_ALT = 0
                          M     endif
                          M     if (PREV_BANK != 0)
                          M         movlb   0
                          M PREV_BANK = 0
                          M     endif
                          M     ifdef PM_USED
                          M         LALL
                          M _send
                          M         XALL
                          M     else
0002AE                    M _send
                          M     endif
                      00374 
                      00375 ; C:\USERS\CONNO\DOCUMENTS\4TH YEAR\PROJECT\PIC CODE\TX_CODE_RESTRUCTURED.PBP   00102       serout ardui
                            no, 4,["H",lightA,lightB,tempA,tempB,voltsA,voltsB,"I"]'X,X,X,X,X,X,X,cycles, cycles, Y,cycles, 
                      00376         SERPIN?T        _arduino
                          M         BIT?R1  PORTB, 003h
0002AE 0E81               M         movlw   low ((PORTB) + ((003h)  >> 3))
                          M         CHK?RP  RR1
                          M     if (((RR1)   & 8000h) != PREV_ALT)
                          M       if ((RR1)   & 8000h)
                          M         bsf     WDTCON, ADSHR
                          M       else
MPASM 5.87          TX_CODE_RESTRUCTURED.ASM   5-23-2023  21:17:45         PAGE 60


LOC  OBJECT CODE     LINE SOURCE TEXT
  VALUE

                          M         bcf     WDTCON, ADSHR
                          M       endif
                          M PREV_ALT = (RR1)   & 8000h
                          M     endif
                          M     if ((((RR1)   & 0fffh) > BANKA_END) & (((RR1)   & 0fffh) < (0f01h + BANKA_END)))
                          M       if (((RR1)   & 0f00h) != (PREV_BANK << 8))
                          M         movlb   high (RR1)
                          M PREV_BANK = high (RR1)
                          M       endif
                          M     endif
0002B0 6E18               M         movwf   RR1
0002B2 0E0F               M         movlw   high ((PORTB) + ((003h)  >> 3))
0002B4 6E1A               M         movwf   RS1
                          M         BIT?W   003h
                          M     if (((003h)  & 7) == 0)
                          M         movlw   01h
                          M     endif
                          M     if (((003h)  & 7) == 1)
                          M         movlw   02h
                          M     endif
                          M     if (((003h)  & 7) == 2)
                          M         movlw   04h
                          M     endif
                          M     if (((003h)  & 7) == 3)
0002B6 0E08               M         movlw   08h
                          M     endif
                          M     if (((003h)  & 7) == 4)
                          M         movlw   10h
                          M     endif
                          M     if (((003h)  & 7) == 5)
                          M         movlw   20h
                          M     endif
                          M     if (((003h)  & 7) == 6)
                          M         movlw   40h
                          M     endif
                          M     if (((003h)  & 7) == 7)
                          M         movlw   80h
                          M     endif
0002B8 6E16               M         movwf   RM1
                      00377         SERMODE?C       004h
                          M         MOVE?CB 004h, GOP
                          M         CHK?RP  GOP
                          M     if (((GOP)   & 8000h) != PREV_ALT)
                          M       if ((GOP)   & 8000h)
                          M         bsf     WDTCON, ADSHR
                          M       else
                          M         bcf     WDTCON, ADSHR
                          M       endif
                          M PREV_ALT = (GOP)   & 8000h
                          M     endif
                          M     if ((((GOP)   & 0fffh) > BANKA_END) & (((GOP)   & 0fffh) < (0f01h + BANKA_END)))
                          M       if (((GOP)   & 0f00h) != (PREV_BANK << 8))
                          M         movlb   high (GOP)
MPASM 5.87          TX_CODE_RESTRUCTURED.ASM   5-23-2023  21:17:45         PAGE 61


LOC  OBJECT CODE     LINE SOURCE TEXT
  VALUE

                          M PREV_BANK = high (GOP)
                          M       endif
                          M     endif
                          M     if (low (004h) == 0)
                          M         clrf    GOP
                          M     else
                          M       if (low (004h) == 255)
                          M         setf    GOP
                          M       else
0002BA 0E04               M         movlw   low (004h)
0002BC 6E01               M         movwf   GOP
                          M       endif
                          M     endif
                      00378         SEROUT?C        048h
0002BE 0E48               M         movlw   048h
                          M         L?CALL  SEROUT
                          M         RST?RP
                          M     if (PREV_ALT != 0)
                          M         bcf     WDTCON, ADSHR
                          M PREV_ALT = 0
                          M     endif
                          M     if (PREV_BANK != 0)
                          M         movlb   0
                          M PREV_BANK = 0
                          M     endif
                          M 
                          M     ifdef USE_LINKER
                          M         call    SEROUT
                          M     else
                          M       if ((SEROUT) < 1)
                          M         call    SEROUT
                          M       else
                          M         if ((SEROUT) > $)
                          M         call    SEROUT
                          M         else
                          M           if ((SEROUT) < ($ - 3ffh))
                          M         call    SEROUT
                          M           else
0002C0 DEA1               M         rcall   SEROUT
                          M           endif
                          M         endif
                          M       endif
                          M     endif
                      00379         SEROUT?B        _lightA
                          M         MOVE?BA _lightA
                          M         CHK?RP  _lightA
                          M     if (((_lightA) & 8000h) != PREV_ALT)
                          M       if ((_lightA) & 8000h)
                          M         bsf     WDTCON, ADSHR
                          M       else
                          M         bcf     WDTCON, ADSHR
                          M       endif
                          M PREV_ALT = (_lightA) & 8000h
MPASM 5.87          TX_CODE_RESTRUCTURED.ASM   5-23-2023  21:17:45         PAGE 62


LOC  OBJECT CODE     LINE SOURCE TEXT
  VALUE

                          M     endif
                          M     if ((((_lightA) & 0fffh) > BANKA_END) & (((_lightA) & 0fffh) < (0f01h + BANKA_END)))
                          M       if (((_lightA) & 0f00h) != (PREV_BANK << 8))
                          M         movlb   high (_lightA)
                          M PREV_BANK = high (_lightA)
                          M       endif
                          M     endif
0002C2 5029               M         movf    _lightA, W
                          M         L?CALL  SEROUT
                          M         RST?RP
                          M     if (PREV_ALT != 0)
                          M         bcf     WDTCON, ADSHR
                          M PREV_ALT = 0
                          M     endif
                          M     if (PREV_BANK != 0)
                          M         movlb   0
                          M PREV_BANK = 0
                          M     endif
                          M 
                          M     ifdef USE_LINKER
                          M         call    SEROUT
                          M     else
                          M       if ((SEROUT) < 1)
                          M         call    SEROUT
                          M       else
                          M         if ((SEROUT) > $)
                          M         call    SEROUT
                          M         else
                          M           if ((SEROUT) < ($ - 3ffh))
                          M         call    SEROUT
                          M           else
0002C4 DE9F               M         rcall   SEROUT
                          M           endif
                          M         endif
                          M       endif
                          M     endif
                      00380         SEROUT?B        _lightB
                          M         MOVE?BA _lightB
                          M         CHK?RP  _lightB
                          M     if (((_lightB) & 8000h) != PREV_ALT)
                          M       if ((_lightB) & 8000h)
                          M         bsf     WDTCON, ADSHR
                          M       else
                          M         bcf     WDTCON, ADSHR
                          M       endif
                          M PREV_ALT = (_lightB) & 8000h
                          M     endif
                          M     if ((((_lightB) & 0fffh) > BANKA_END) & (((_lightB) & 0fffh) < (0f01h + BANKA_END)))
                          M       if (((_lightB) & 0f00h) != (PREV_BANK << 8))
                          M         movlb   high (_lightB)
                          M PREV_BANK = high (_lightB)
                          M       endif
                          M     endif
MPASM 5.87          TX_CODE_RESTRUCTURED.ASM   5-23-2023  21:17:45         PAGE 63


LOC  OBJECT CODE     LINE SOURCE TEXT
  VALUE

0002C6 502A               M         movf    _lightB, W
                          M         L?CALL  SEROUT
                          M         RST?RP
                          M     if (PREV_ALT != 0)
                          M         bcf     WDTCON, ADSHR
                          M PREV_ALT = 0
                          M     endif
                          M     if (PREV_BANK != 0)
                          M         movlb   0
                          M PREV_BANK = 0
                          M     endif
                          M 
                          M     ifdef USE_LINKER
                          M         call    SEROUT
                          M     else
                          M       if ((SEROUT) < 1)
                          M         call    SEROUT
                          M       else
                          M         if ((SEROUT) > $)
                          M         call    SEROUT
                          M         else
                          M           if ((SEROUT) < ($ - 3ffh))
                          M         call    SEROUT
                          M           else
0002C8 DE9D               M         rcall   SEROUT
                          M           endif
                          M         endif
                          M       endif
                          M     endif
                      00381         SEROUT?B        _tempA
                          M         MOVE?BA _tempA
                          M         CHK?RP  _tempA
                          M     if (((_tempA) & 8000h) != PREV_ALT)
                          M       if ((_tempA) & 8000h)
                          M         bsf     WDTCON, ADSHR
                          M       else
                          M         bcf     WDTCON, ADSHR
                          M       endif
                          M PREV_ALT = (_tempA) & 8000h
                          M     endif
                          M     if ((((_tempA) & 0fffh) > BANKA_END) & (((_tempA) & 0fffh) < (0f01h + BANKA_END)))
                          M       if (((_tempA) & 0f00h) != (PREV_BANK << 8))
                          M         movlb   high (_tempA)
                          M PREV_BANK = high (_tempA)
                          M       endif
                          M     endif
0002CA 502B               M         movf    _tempA, W
                          M         L?CALL  SEROUT
                          M         RST?RP
                          M     if (PREV_ALT != 0)
                          M         bcf     WDTCON, ADSHR
                          M PREV_ALT = 0
                          M     endif
MPASM 5.87          TX_CODE_RESTRUCTURED.ASM   5-23-2023  21:17:45         PAGE 64


LOC  OBJECT CODE     LINE SOURCE TEXT
  VALUE

                          M     if (PREV_BANK != 0)
                          M         movlb   0
                          M PREV_BANK = 0
                          M     endif
                          M 
                          M     ifdef USE_LINKER
                          M         call    SEROUT
                          M     else
                          M       if ((SEROUT) < 1)
                          M         call    SEROUT
                          M       else
                          M         if ((SEROUT) > $)
                          M         call    SEROUT
                          M         else
                          M           if ((SEROUT) < ($ - 3ffh))
                          M         call    SEROUT
                          M           else
0002CC DE9B               M         rcall   SEROUT
                          M           endif
                          M         endif
                          M       endif
                          M     endif
                      00382         SEROUT?B        _tempB
                          M         MOVE?BA _tempB
                          M         CHK?RP  _tempB
                          M     if (((_tempB) & 8000h) != PREV_ALT)
                          M       if ((_tempB) & 8000h)
                          M         bsf     WDTCON, ADSHR
                          M       else
                          M         bcf     WDTCON, ADSHR
                          M       endif
                          M PREV_ALT = (_tempB) & 8000h
                          M     endif
                          M     if ((((_tempB) & 0fffh) > BANKA_END) & (((_tempB) & 0fffh) < (0f01h + BANKA_END)))
                          M       if (((_tempB) & 0f00h) != (PREV_BANK << 8))
                          M         movlb   high (_tempB)
                          M PREV_BANK = high (_tempB)
                          M       endif
                          M     endif
0002CE 502C               M         movf    _tempB, W
                          M         L?CALL  SEROUT
                          M         RST?RP
                          M     if (PREV_ALT != 0)
                          M         bcf     WDTCON, ADSHR
                          M PREV_ALT = 0
                          M     endif
                          M     if (PREV_BANK != 0)
                          M         movlb   0
                          M PREV_BANK = 0
                          M     endif
                          M 
                          M     ifdef USE_LINKER
                          M         call    SEROUT
MPASM 5.87          TX_CODE_RESTRUCTURED.ASM   5-23-2023  21:17:45         PAGE 65


LOC  OBJECT CODE     LINE SOURCE TEXT
  VALUE

                          M     else
                          M       if ((SEROUT) < 1)
                          M         call    SEROUT
                          M       else
                          M         if ((SEROUT) > $)
                          M         call    SEROUT
                          M         else
                          M           if ((SEROUT) < ($ - 3ffh))
                          M         call    SEROUT
                          M           else
0002D0 DE99               M         rcall   SEROUT
                          M           endif
                          M         endif
                          M       endif
                          M     endif
                      00383         SEROUT?B        _voltsA
                          M         MOVE?BA _voltsA
                          M         CHK?RP  _voltsA
                          M     if (((_voltsA) & 8000h) != PREV_ALT)
                          M       if ((_voltsA) & 8000h)
                          M         bsf     WDTCON, ADSHR
                          M       else
                          M         bcf     WDTCON, ADSHR
                          M       endif
                          M PREV_ALT = (_voltsA) & 8000h
                          M     endif
                          M     if ((((_voltsA) & 0fffh) > BANKA_END) & (((_voltsA) & 0fffh) < (0f01h + BANKA_END)))
                          M       if (((_voltsA) & 0f00h) != (PREV_BANK << 8))
                          M         movlb   high (_voltsA)
                          M PREV_BANK = high (_voltsA)
                          M       endif
                          M     endif
0002D2 502D               M         movf    _voltsA, W
                          M         L?CALL  SEROUT
                          M         RST?RP
                          M     if (PREV_ALT != 0)
                          M         bcf     WDTCON, ADSHR
                          M PREV_ALT = 0
                          M     endif
                          M     if (PREV_BANK != 0)
                          M         movlb   0
                          M PREV_BANK = 0
                          M     endif
                          M 
                          M     ifdef USE_LINKER
                          M         call    SEROUT
                          M     else
                          M       if ((SEROUT) < 1)
                          M         call    SEROUT
                          M       else
                          M         if ((SEROUT) > $)
                          M         call    SEROUT
                          M         else
MPASM 5.87          TX_CODE_RESTRUCTURED.ASM   5-23-2023  21:17:45         PAGE 66


LOC  OBJECT CODE     LINE SOURCE TEXT
  VALUE

                          M           if ((SEROUT) < ($ - 3ffh))
                          M         call    SEROUT
                          M           else
0002D4 DE97               M         rcall   SEROUT
                          M           endif
                          M         endif
                          M       endif
                          M     endif
                      00384         SEROUT?B        _voltsB
                          M         MOVE?BA _voltsB
                          M         CHK?RP  _voltsB
                          M     if (((_voltsB) & 8000h) != PREV_ALT)
                          M       if ((_voltsB) & 8000h)
                          M         bsf     WDTCON, ADSHR
                          M       else
                          M         bcf     WDTCON, ADSHR
                          M       endif
                          M PREV_ALT = (_voltsB) & 8000h
                          M     endif
                          M     if ((((_voltsB) & 0fffh) > BANKA_END) & (((_voltsB) & 0fffh) < (0f01h + BANKA_END)))
                          M       if (((_voltsB) & 0f00h) != (PREV_BANK << 8))
                          M         movlb   high (_voltsB)
                          M PREV_BANK = high (_voltsB)
                          M       endif
                          M     endif
0002D6 502E               M         movf    _voltsB, W
                          M         L?CALL  SEROUT
                          M         RST?RP
                          M     if (PREV_ALT != 0)
                          M         bcf     WDTCON, ADSHR
                          M PREV_ALT = 0
                          M     endif
                          M     if (PREV_BANK != 0)
                          M         movlb   0
                          M PREV_BANK = 0
                          M     endif
                          M 
                          M     ifdef USE_LINKER
                          M         call    SEROUT
                          M     else
                          M       if ((SEROUT) < 1)
                          M         call    SEROUT
                          M       else
                          M         if ((SEROUT) > $)
                          M         call    SEROUT
                          M         else
                          M           if ((SEROUT) < ($ - 3ffh))
                          M         call    SEROUT
                          M           else
0002D8 DE95               M         rcall   SEROUT
                          M           endif
                          M         endif
                          M       endif
MPASM 5.87          TX_CODE_RESTRUCTURED.ASM   5-23-2023  21:17:45         PAGE 67


LOC  OBJECT CODE     LINE SOURCE TEXT
  VALUE

                          M     endif
                      00385         SEROUT?C        049h
0002DA 0E49               M         movlw   049h
                          M         L?CALL  SEROUT
                          M         RST?RP
                          M     if (PREV_ALT != 0)
                          M         bcf     WDTCON, ADSHR
                          M PREV_ALT = 0
                          M     endif
                          M     if (PREV_BANK != 0)
                          M         movlb   0
                          M PREV_BANK = 0
                          M     endif
                          M 
                          M     ifdef USE_LINKER
                          M         call    SEROUT
                          M     else
                          M       if ((SEROUT) < 1)
                          M         call    SEROUT
                          M       else
                          M         if ((SEROUT) > $)
                          M         call    SEROUT
                          M         else
                          M           if ((SEROUT) < ($ - 3ffh))
                          M         call    SEROUT
                          M           else
0002DC DE93               M         rcall   SEROUT
                          M           endif
                          M         endif
                          M       endif
                          M     endif
                      00386 
                      00387 ; C:\USERS\CONNO\DOCUMENTS\4TH YEAR\PROJECT\PIC CODE\TX_CODE_RESTRUCTURED.PBP   00104       return
                      00388         RETURN? 
                          M     ifdef DEBUG_STACK
                          M         CHK?RP  DEBUG_STACK
                          M         decf    DEBUG_STACK, F
                          M     endif
                          M         RST?RP
                          M     if (PREV_ALT != 0)
                          M         bcf     WDTCON, ADSHR
                          M PREV_ALT = 0
                          M     endif
                          M     if (PREV_BANK != 0)
                          M         movlb   0
                          M PREV_BANK = 0
                          M     endif
0002DE 0012               M         return
                      00389 
                      00390 ; C:\USERS\CONNO\DOCUMENTS\4TH YEAR\PROJECT\PIC CODE\TX_CODE_RESTRUCTURED.PBP   00106   send_nothing:   
                               'sends a placeholder in order to block error signals
                      00391 
                      00392         LABEL?L _send_nothing   
MPASM 5.87          TX_CODE_RESTRUCTURED.ASM   5-23-2023  21:17:45         PAGE 68


LOC  OBJECT CODE     LINE SOURCE TEXT
  VALUE

                          M         RST?RP
                          M     if (PREV_ALT != 0)
                          M         bcf     WDTCON, ADSHR
                          M PREV_ALT = 0
                          M     endif
                          M     if (PREV_BANK != 0)
                          M         movlb   0
                          M PREV_BANK = 0
                          M     endif
                          M     ifdef PM_USED
                          M         LALL
                          M _send_nothing
                          M         XALL
                          M     else
0002E0                    M _send_nothing
                          M     endif
                      00393 
                      00394 ; C:\USERS\CONNO\DOCUMENTS\4TH YEAR\PROJECT\PIC CODE\TX_CODE_RESTRUCTURED.PBP   00107       serout ardui
                            no, 4,["N"]
                      00395         SERPIN?T        _arduino
                          M         BIT?R1  PORTB, 003h
0002E0 0E81               M         movlw   low ((PORTB) + ((003h)  >> 3))
                          M         CHK?RP  RR1
                          M     if (((RR1)   & 8000h) != PREV_ALT)
                          M       if ((RR1)   & 8000h)
                          M         bsf     WDTCON, ADSHR
                          M       else
                          M         bcf     WDTCON, ADSHR
                          M       endif
                          M PREV_ALT = (RR1)   & 8000h
                          M     endif
                          M     if ((((RR1)   & 0fffh) > BANKA_END) & (((RR1)   & 0fffh) < (0f01h + BANKA_END)))
                          M       if (((RR1)   & 0f00h) != (PREV_BANK << 8))
                          M         movlb   high (RR1)
                          M PREV_BANK = high (RR1)
                          M       endif
                          M     endif
0002E2 6E18               M         movwf   RR1
0002E4 0E0F               M         movlw   high ((PORTB) + ((003h)  >> 3))
0002E6 6E1A               M         movwf   RS1
                          M         BIT?W   003h
                          M     if (((003h)  & 7) == 0)
                          M         movlw   01h
                          M     endif
                          M     if (((003h)  & 7) == 1)
                          M         movlw   02h
                          M     endif
                          M     if (((003h)  & 7) == 2)
                          M         movlw   04h
                          M     endif
                          M     if (((003h)  & 7) == 3)
0002E8 0E08               M         movlw   08h
                          M     endif
MPASM 5.87          TX_CODE_RESTRUCTURED.ASM   5-23-2023  21:17:45         PAGE 69


LOC  OBJECT CODE     LINE SOURCE TEXT
  VALUE

                          M     if (((003h)  & 7) == 4)
                          M         movlw   10h
                          M     endif
                          M     if (((003h)  & 7) == 5)
                          M         movlw   20h
                          M     endif
                          M     if (((003h)  & 7) == 6)
                          M         movlw   40h
                          M     endif
                          M     if (((003h)  & 7) == 7)
                          M         movlw   80h
                          M     endif
0002EA 6E16               M         movwf   RM1
                      00396         SERMODE?C       004h
                          M         MOVE?CB 004h, GOP
                          M         CHK?RP  GOP
                          M     if (((GOP)   & 8000h) != PREV_ALT)
                          M       if ((GOP)   & 8000h)
                          M         bsf     WDTCON, ADSHR
                          M       else
                          M         bcf     WDTCON, ADSHR
                          M       endif
                          M PREV_ALT = (GOP)   & 8000h
                          M     endif
                          M     if ((((GOP)   & 0fffh) > BANKA_END) & (((GOP)   & 0fffh) < (0f01h + BANKA_END)))
                          M       if (((GOP)   & 0f00h) != (PREV_BANK << 8))
                          M         movlb   high (GOP)
                          M PREV_BANK = high (GOP)
                          M       endif
                          M     endif
                          M     if (low (004h) == 0)
                          M         clrf    GOP
                          M     else
                          M       if (low (004h) == 255)
                          M         setf    GOP
                          M       else
0002EC 0E04               M         movlw   low (004h)
0002EE 6E01               M         movwf   GOP
                          M       endif
                          M     endif
                      00397         SEROUT?C        04Eh
0002F0 0E4E               M         movlw   04Eh
                          M         L?CALL  SEROUT
                          M         RST?RP
                          M     if (PREV_ALT != 0)
                          M         bcf     WDTCON, ADSHR
                          M PREV_ALT = 0
                          M     endif
                          M     if (PREV_BANK != 0)
                          M         movlb   0
                          M PREV_BANK = 0
                          M     endif
                          M 
MPASM 5.87          TX_CODE_RESTRUCTURED.ASM   5-23-2023  21:17:45         PAGE 70


LOC  OBJECT CODE     LINE SOURCE TEXT
  VALUE

                          M     ifdef USE_LINKER
                          M         call    SEROUT
                          M     else
                          M       if ((SEROUT) < 1)
                          M         call    SEROUT
                          M       else
                          M         if ((SEROUT) > $)
                          M         call    SEROUT
                          M         else
                          M           if ((SEROUT) < ($ - 3ffh))
                          M         call    SEROUT
                          M           else
0002F2 DE88               M         rcall   SEROUT
                          M           endif
                          M         endif
                          M       endif
                          M     endif
                      00398 
                      00399 ; C:\USERS\CONNO\DOCUMENTS\4TH YEAR\PROJECT\PIC CODE\TX_CODE_RESTRUCTURED.PBP   00108       return
                      00400         RETURN? 
                          M     ifdef DEBUG_STACK
                          M         CHK?RP  DEBUG_STACK
                          M         decf    DEBUG_STACK, F
                          M     endif
                          M         RST?RP
                          M     if (PREV_ALT != 0)
                          M         bcf     WDTCON, ADSHR
                          M PREV_ALT = 0
                          M     endif
                          M     if (PREV_BANK != 0)
                          M         movlb   0
                          M PREV_BANK = 0
                          M     endif
0002F4 0012               M         return
                      00401 
                      00402 ; C:\USERS\CONNO\DOCUMENTS\4TH YEAR\PROJECT\PIC CODE\TX_CODE_RESTRUCTURED.PBP   00110   sleep_time:
                      00403 
                      00404         LABEL?L _sleep_time     
                          M         RST?RP
                          M     if (PREV_ALT != 0)
                          M         bcf     WDTCON, ADSHR
                          M PREV_ALT = 0
                          M     endif
                          M     if (PREV_BANK != 0)
                          M         movlb   0
                          M PREV_BANK = 0
                          M     endif
                          M     ifdef PM_USED
                          M         LALL
                          M _sleep_time
                          M         XALL
                          M     else
0002F6                    M _sleep_time
MPASM 5.87          TX_CODE_RESTRUCTURED.ASM   5-23-2023  21:17:45         PAGE 71


LOC  OBJECT CODE     LINE SOURCE TEXT
  VALUE

                          M     endif
                      00405 
                      00406 ; C:\USERS\CONNO\DOCUMENTS\4TH YEAR\PROJECT\PIC CODE\TX_CODE_RESTRUCTURED.PBP   00111       led=0
                      00407         MOVE?CT 000h, _led
                          M         CHK?RP  PORTB
                          M     if (((PORTB) & 8000h) != PREV_ALT)
                          M       if ((PORTB) & 8000h)
                          M         bsf     WDTCON, ADSHR
                          M       else
                          M         bcf     WDTCON, ADSHR
                          M       endif
                          M PREV_ALT = (PORTB) & 8000h
                          M     endif
                          M     if ((((PORTB) & 0fffh) > BANKA_END) & (((PORTB) & 0fffh) < (0f01h + BANKA_END)))
                          M       if (((PORTB) & 0f00h) != (PREV_BANK << 8))
                          M         movlb   high (PORTB)
                          M PREV_BANK = high (PORTB)
                          M       endif
                          M     endif
                          M     if (((000h) & 1) == 1)
                          M         bsf     PORTB,  000h
                          M     else
0002F6 9081               M         bcf     PORTB,  000h
                          M     endif
                      00408 
                      00409 ; C:\USERS\CONNO\DOCUMENTS\4TH YEAR\PROJECT\PIC CODE\TX_CODE_RESTRUCTURED.PBP   00112       serout ardui
                            no, 4,["T","T","T","T"]
                      00410         SERPIN?T        _arduino
                          M         BIT?R1  PORTB, 003h
0002F8 0E81               M         movlw   low ((PORTB) + ((003h)  >> 3))
                          M         CHK?RP  RR1
                          M     if (((RR1)   & 8000h) != PREV_ALT)
                          M       if ((RR1)   & 8000h)
                          M         bsf     WDTCON, ADSHR
                          M       else
                          M         bcf     WDTCON, ADSHR
                          M       endif
                          M PREV_ALT = (RR1)   & 8000h
                          M     endif
                          M     if ((((RR1)   & 0fffh) > BANKA_END) & (((RR1)   & 0fffh) < (0f01h + BANKA_END)))
                          M       if (((RR1)   & 0f00h) != (PREV_BANK << 8))
                          M         movlb   high (RR1)
                          M PREV_BANK = high (RR1)
                          M       endif
                          M     endif
0002FA 6E18               M         movwf   RR1
0002FC 0E0F               M         movlw   high ((PORTB) + ((003h)  >> 3))
0002FE 6E1A               M         movwf   RS1
                          M         BIT?W   003h
                          M     if (((003h)  & 7) == 0)
                          M         movlw   01h
                          M     endif
                          M     if (((003h)  & 7) == 1)
MPASM 5.87          TX_CODE_RESTRUCTURED.ASM   5-23-2023  21:17:45         PAGE 72


LOC  OBJECT CODE     LINE SOURCE TEXT
  VALUE

                          M         movlw   02h
                          M     endif
                          M     if (((003h)  & 7) == 2)
                          M         movlw   04h
                          M     endif
                          M     if (((003h)  & 7) == 3)
000300 0E08               M         movlw   08h
                          M     endif
                          M     if (((003h)  & 7) == 4)
                          M         movlw   10h
                          M     endif
                          M     if (((003h)  & 7) == 5)
                          M         movlw   20h
                          M     endif
                          M     if (((003h)  & 7) == 6)
                          M         movlw   40h
                          M     endif
                          M     if (((003h)  & 7) == 7)
                          M         movlw   80h
                          M     endif
000302 6E16               M         movwf   RM1
                      00411         SERMODE?C       004h
                          M         MOVE?CB 004h, GOP
                          M         CHK?RP  GOP
                          M     if (((GOP)   & 8000h) != PREV_ALT)
                          M       if ((GOP)   & 8000h)
                          M         bsf     WDTCON, ADSHR
                          M       else
                          M         bcf     WDTCON, ADSHR
                          M       endif
                          M PREV_ALT = (GOP)   & 8000h
                          M     endif
                          M     if ((((GOP)   & 0fffh) > BANKA_END) & (((GOP)   & 0fffh) < (0f01h + BANKA_END)))
                          M       if (((GOP)   & 0f00h) != (PREV_BANK << 8))
                          M         movlb   high (GOP)
                          M PREV_BANK = high (GOP)
                          M       endif
                          M     endif
                          M     if (low (004h) == 0)
                          M         clrf    GOP
                          M     else
                          M       if (low (004h) == 255)
                          M         setf    GOP
                          M       else
000304 0E04               M         movlw   low (004h)
000306 6E01               M         movwf   GOP
                          M       endif
                          M     endif
                      00412         SEROUT?C        054h
000308 0E54               M         movlw   054h
                          M         L?CALL  SEROUT
                          M         RST?RP
                          M     if (PREV_ALT != 0)
MPASM 5.87          TX_CODE_RESTRUCTURED.ASM   5-23-2023  21:17:45         PAGE 73


LOC  OBJECT CODE     LINE SOURCE TEXT
  VALUE

                          M         bcf     WDTCON, ADSHR
                          M PREV_ALT = 0
                          M     endif
                          M     if (PREV_BANK != 0)
                          M         movlb   0
                          M PREV_BANK = 0
                          M     endif
                          M 
                          M     ifdef USE_LINKER
                          M         call    SEROUT
                          M     else
                          M       if ((SEROUT) < 1)
                          M         call    SEROUT
                          M       else
                          M         if ((SEROUT) > $)
                          M         call    SEROUT
                          M         else
                          M           if ((SEROUT) < ($ - 3ffh))
                          M         call    SEROUT
                          M           else
00030A DE7C               M         rcall   SEROUT
                          M           endif
                          M         endif
                          M       endif
                          M     endif
                      00413         SEROUT?C        054h
00030C 0E54               M         movlw   054h
                          M         L?CALL  SEROUT
                          M         RST?RP
                          M     if (PREV_ALT != 0)
                          M         bcf     WDTCON, ADSHR
                          M PREV_ALT = 0
                          M     endif
                          M     if (PREV_BANK != 0)
                          M         movlb   0
                          M PREV_BANK = 0
                          M     endif
                          M 
                          M     ifdef USE_LINKER
                          M         call    SEROUT
                          M     else
                          M       if ((SEROUT) < 1)
                          M         call    SEROUT
                          M       else
                          M         if ((SEROUT) > $)
                          M         call    SEROUT
                          M         else
                          M           if ((SEROUT) < ($ - 3ffh))
                          M         call    SEROUT
                          M           else
00030E DE7A               M         rcall   SEROUT
                          M           endif
                          M         endif
MPASM 5.87          TX_CODE_RESTRUCTURED.ASM   5-23-2023  21:17:45         PAGE 74


LOC  OBJECT CODE     LINE SOURCE TEXT
  VALUE

                          M       endif
                          M     endif
                      00414         SEROUT?C        054h
000310 0E54               M         movlw   054h
                          M         L?CALL  SEROUT
                          M         RST?RP
                          M     if (PREV_ALT != 0)
                          M         bcf     WDTCON, ADSHR
                          M PREV_ALT = 0
                          M     endif
                          M     if (PREV_BANK != 0)
                          M         movlb   0
                          M PREV_BANK = 0
                          M     endif
                          M 
                          M     ifdef USE_LINKER
                          M         call    SEROUT
                          M     else
                          M       if ((SEROUT) < 1)
                          M         call    SEROUT
                          M       else
                          M         if ((SEROUT) > $)
                          M         call    SEROUT
                          M         else
                          M           if ((SEROUT) < ($ - 3ffh))
                          M         call    SEROUT
                          M           else
000312 DE78               M         rcall   SEROUT
                          M           endif
                          M         endif
                          M       endif
                          M     endif
                      00415         SEROUT?C        054h
000314 0E54               M         movlw   054h
                          M         L?CALL  SEROUT
                          M         RST?RP
                          M     if (PREV_ALT != 0)
                          M         bcf     WDTCON, ADSHR
                          M PREV_ALT = 0
                          M     endif
                          M     if (PREV_BANK != 0)
                          M         movlb   0
                          M PREV_BANK = 0
                          M     endif
                          M 
                          M     ifdef USE_LINKER
                          M         call    SEROUT
                          M     else
                          M       if ((SEROUT) < 1)
                          M         call    SEROUT
                          M       else
                          M         if ((SEROUT) > $)
                          M         call    SEROUT
MPASM 5.87          TX_CODE_RESTRUCTURED.ASM   5-23-2023  21:17:45         PAGE 75


LOC  OBJECT CODE     LINE SOURCE TEXT
  VALUE

                          M         else
                          M           if ((SEROUT) < ($ - 3ffh))
                          M         call    SEROUT
                          M           else
000316 DE76               M         rcall   SEROUT
                          M           endif
                          M         endif
                          M       endif
                          M     endif
                      00416 
                      00417 ; C:\USERS\CONNO\DOCUMENTS\4TH YEAR\PROJECT\PIC CODE\TX_CODE_RESTRUCTURED.PBP   00113       pause 75
                      00418         PAUSE?C 04Bh
                          M     if (((04Bh) >> 8) == 0)
                          M         MOVE?CA 04Bh
000318 0E4B               M         movlw   low (04Bh)
                          M         L?CALL  PAUSE
                          M         RST?RP
                          M     if (PREV_ALT != 0)
                          M         bcf     WDTCON, ADSHR
                          M PREV_ALT = 0
                          M     endif
                          M     if (PREV_BANK != 0)
                          M         movlb   0
                          M PREV_BANK = 0
                          M     endif
                          M 
                          M     ifdef USE_LINKER
                          M         call    PAUSE
                          M     else
                          M       if ((PAUSE) < 1)
                          M         call    PAUSE
                          M       else
                          M         if ((PAUSE) > $)
                          M         call    PAUSE
                          M         else
                          M           if ((PAUSE) < ($ - 3ffh))
                          M         call    PAUSE
                          M           else
00031A DEB3               M         rcall   PAUSE
                          M           endif
                          M         endif
                          M       endif
                          M     endif
                          M     else
                          M         MOVE?CB (04Bh) >> 8, R1 + 1
                          M         MOVE?CA low (04Bh)
                          M         L?CALL  PAUSEL
                          M     endif
                      00419 
                      00420 ; C:\USERS\CONNO\DOCUMENTS\4TH YEAR\PROJECT\PIC CODE\TX_CODE_RESTRUCTURED.PBP   00114       serout ardui
                            no, 4,["T","T","T","T"]
                      00421         SERPIN?T        _arduino
                          M         BIT?R1  PORTB, 003h
MPASM 5.87          TX_CODE_RESTRUCTURED.ASM   5-23-2023  21:17:45         PAGE 76


LOC  OBJECT CODE     LINE SOURCE TEXT
  VALUE

00031C 0E81               M         movlw   low ((PORTB) + ((003h)  >> 3))
                          M         CHK?RP  RR1
                          M     if (((RR1)   & 8000h) != PREV_ALT)
                          M       if ((RR1)   & 8000h)
                          M         bsf     WDTCON, ADSHR
                          M       else
                          M         bcf     WDTCON, ADSHR
                          M       endif
                          M PREV_ALT = (RR1)   & 8000h
                          M     endif
                          M     if ((((RR1)   & 0fffh) > BANKA_END) & (((RR1)   & 0fffh) < (0f01h + BANKA_END)))
                          M       if (((RR1)   & 0f00h) != (PREV_BANK << 8))
                          M         movlb   high (RR1)
                          M PREV_BANK = high (RR1)
                          M       endif
                          M     endif
00031E 6E18               M         movwf   RR1
000320 0E0F               M         movlw   high ((PORTB) + ((003h)  >> 3))
000322 6E1A               M         movwf   RS1
                          M         BIT?W   003h
                          M     if (((003h)  & 7) == 0)
                          M         movlw   01h
                          M     endif
                          M     if (((003h)  & 7) == 1)
                          M         movlw   02h
                          M     endif
                          M     if (((003h)  & 7) == 2)
                          M         movlw   04h
                          M     endif
                          M     if (((003h)  & 7) == 3)
000324 0E08               M         movlw   08h
                          M     endif
                          M     if (((003h)  & 7) == 4)
                          M         movlw   10h
                          M     endif
                          M     if (((003h)  & 7) == 5)
                          M         movlw   20h
                          M     endif
                          M     if (((003h)  & 7) == 6)
                          M         movlw   40h
                          M     endif
                          M     if (((003h)  & 7) == 7)
                          M         movlw   80h
                          M     endif
000326 6E16               M         movwf   RM1
                      00422         SERMODE?C       004h
                          M         MOVE?CB 004h, GOP
                          M         CHK?RP  GOP
                          M     if (((GOP)   & 8000h) != PREV_ALT)
                          M       if ((GOP)   & 8000h)
                          M         bsf     WDTCON, ADSHR
                          M       else
                          M         bcf     WDTCON, ADSHR
MPASM 5.87          TX_CODE_RESTRUCTURED.ASM   5-23-2023  21:17:45         PAGE 77


LOC  OBJECT CODE     LINE SOURCE TEXT
  VALUE

                          M       endif
                          M PREV_ALT = (GOP)   & 8000h
                          M     endif
                          M     if ((((GOP)   & 0fffh) > BANKA_END) & (((GOP)   & 0fffh) < (0f01h + BANKA_END)))
                          M       if (((GOP)   & 0f00h) != (PREV_BANK << 8))
                          M         movlb   high (GOP)
                          M PREV_BANK = high (GOP)
                          M       endif
                          M     endif
                          M     if (low (004h) == 0)
                          M         clrf    GOP
                          M     else
                          M       if (low (004h) == 255)
                          M         setf    GOP
                          M       else
000328 0E04               M         movlw   low (004h)
00032A 6E01               M         movwf   GOP
                          M       endif
                          M     endif
                      00423         SEROUT?C        054h
00032C 0E54               M         movlw   054h
                          M         L?CALL  SEROUT
                          M         RST?RP
                          M     if (PREV_ALT != 0)
                          M         bcf     WDTCON, ADSHR
                          M PREV_ALT = 0
                          M     endif
                          M     if (PREV_BANK != 0)
                          M         movlb   0
                          M PREV_BANK = 0
                          M     endif
                          M 
                          M     ifdef USE_LINKER
                          M         call    SEROUT
                          M     else
                          M       if ((SEROUT) < 1)
                          M         call    SEROUT
                          M       else
                          M         if ((SEROUT) > $)
                          M         call    SEROUT
                          M         else
                          M           if ((SEROUT) < ($ - 3ffh))
                          M         call    SEROUT
                          M           else
00032E DE6A               M         rcall   SEROUT
                          M           endif
                          M         endif
                          M       endif
                          M     endif
                      00424         SEROUT?C        054h
000330 0E54               M         movlw   054h
                          M         L?CALL  SEROUT
                          M         RST?RP
MPASM 5.87          TX_CODE_RESTRUCTURED.ASM   5-23-2023  21:17:45         PAGE 78


LOC  OBJECT CODE     LINE SOURCE TEXT
  VALUE

                          M     if (PREV_ALT != 0)
                          M         bcf     WDTCON, ADSHR
                          M PREV_ALT = 0
                          M     endif
                          M     if (PREV_BANK != 0)
                          M         movlb   0
                          M PREV_BANK = 0
                          M     endif
                          M 
                          M     ifdef USE_LINKER
                          M         call    SEROUT
                          M     else
                          M       if ((SEROUT) < 1)
                          M         call    SEROUT
                          M       else
                          M         if ((SEROUT) > $)
                          M         call    SEROUT
                          M         else
                          M           if ((SEROUT) < ($ - 3ffh))
                          M         call    SEROUT
                          M           else
000332 DE68               M         rcall   SEROUT
                          M           endif
                          M         endif
                          M       endif
                          M     endif
                      00425         SEROUT?C        054h
000334 0E54               M         movlw   054h
                          M         L?CALL  SEROUT
                          M         RST?RP
                          M     if (PREV_ALT != 0)
                          M         bcf     WDTCON, ADSHR
                          M PREV_ALT = 0
                          M     endif
                          M     if (PREV_BANK != 0)
                          M         movlb   0
                          M PREV_BANK = 0
                          M     endif
                          M 
                          M     ifdef USE_LINKER
                          M         call    SEROUT
                          M     else
                          M       if ((SEROUT) < 1)
                          M         call    SEROUT
                          M       else
                          M         if ((SEROUT) > $)
                          M         call    SEROUT
                          M         else
                          M           if ((SEROUT) < ($ - 3ffh))
                          M         call    SEROUT
                          M           else
000336 DE66               M         rcall   SEROUT
                          M           endif
MPASM 5.87          TX_CODE_RESTRUCTURED.ASM   5-23-2023  21:17:45         PAGE 79


LOC  OBJECT CODE     LINE SOURCE TEXT
  VALUE

                          M         endif
                          M       endif
                          M     endif
                      00426         SEROUT?C        054h
000338 0E54               M         movlw   054h
                          M         L?CALL  SEROUT
                          M         RST?RP
                          M     if (PREV_ALT != 0)
                          M         bcf     WDTCON, ADSHR
                          M PREV_ALT = 0
                          M     endif
                          M     if (PREV_BANK != 0)
                          M         movlb   0
                          M PREV_BANK = 0
                          M     endif
                          M 
                          M     ifdef USE_LINKER
                          M         call    SEROUT
                          M     else
                          M       if ((SEROUT) < 1)
                          M         call    SEROUT
                          M       else
                          M         if ((SEROUT) > $)
                          M         call    SEROUT
                          M         else
                          M           if ((SEROUT) < ($ - 3ffh))
                          M         call    SEROUT
                          M           else
00033A DE64               M         rcall   SEROUT
                          M           endif
                          M         endif
                          M       endif
                          M     endif
                      00427 
                      00428 ; C:\USERS\CONNO\DOCUMENTS\4TH YEAR\PROJECT\PIC CODE\TX_CODE_RESTRUCTURED.PBP   00115       pause 75
                      00429         PAUSE?C 04Bh
                          M     if (((04Bh) >> 8) == 0)
                          M         MOVE?CA 04Bh
00033C 0E4B               M         movlw   low (04Bh)
                          M         L?CALL  PAUSE
                          M         RST?RP
                          M     if (PREV_ALT != 0)
                          M         bcf     WDTCON, ADSHR
                          M PREV_ALT = 0
                          M     endif
                          M     if (PREV_BANK != 0)
                          M         movlb   0
                          M PREV_BANK = 0
                          M     endif
                          M 
                          M     ifdef USE_LINKER
                          M         call    PAUSE
                          M     else
MPASM 5.87          TX_CODE_RESTRUCTURED.ASM   5-23-2023  21:17:45         PAGE 80


LOC  OBJECT CODE     LINE SOURCE TEXT
  VALUE

                          M       if ((PAUSE) < 1)
                          M         call    PAUSE
                          M       else
                          M         if ((PAUSE) > $)
                          M         call    PAUSE
                          M         else
                          M           if ((PAUSE) < ($ - 3ffh))
                          M         call    PAUSE
                          M           else
00033E DEA1               M         rcall   PAUSE
                          M           endif
                          M         endif
                          M       endif
                          M     endif
                          M     else
                          M         MOVE?CB (04Bh) >> 8, R1 + 1
                          M         MOVE?CA low (04Bh)
                          M         L?CALL  PAUSEL
                          M     endif
                      00430 
                      00431 ; C:\USERS\CONNO\DOCUMENTS\4TH YEAR\PROJECT\PIC CODE\TX_CODE_RESTRUCTURED.PBP   00116       serout ardui
                            no, 4,["T","T","T","T"]
                      00432         SERPIN?T        _arduino
                          M         BIT?R1  PORTB, 003h
000340 0E81               M         movlw   low ((PORTB) + ((003h)  >> 3))
                          M         CHK?RP  RR1
                          M     if (((RR1)   & 8000h) != PREV_ALT)
                          M       if ((RR1)   & 8000h)
                          M         bsf     WDTCON, ADSHR
                          M       else
                          M         bcf     WDTCON, ADSHR
                          M       endif
                          M PREV_ALT = (RR1)   & 8000h
                          M     endif
                          M     if ((((RR1)   & 0fffh) > BANKA_END) & (((RR1)   & 0fffh) < (0f01h + BANKA_END)))
                          M       if (((RR1)   & 0f00h) != (PREV_BANK << 8))
                          M         movlb   high (RR1)
                          M PREV_BANK = high (RR1)
                          M       endif
                          M     endif
000342 6E18               M         movwf   RR1
000344 0E0F               M         movlw   high ((PORTB) + ((003h)  >> 3))
000346 6E1A               M         movwf   RS1
                          M         BIT?W   003h
                          M     if (((003h)  & 7) == 0)
                          M         movlw   01h
                          M     endif
                          M     if (((003h)  & 7) == 1)
                          M         movlw   02h
                          M     endif
                          M     if (((003h)  & 7) == 2)
                          M         movlw   04h
                          M     endif
MPASM 5.87          TX_CODE_RESTRUCTURED.ASM   5-23-2023  21:17:45         PAGE 81


LOC  OBJECT CODE     LINE SOURCE TEXT
  VALUE

                          M     if (((003h)  & 7) == 3)
000348 0E08               M         movlw   08h
                          M     endif
                          M     if (((003h)  & 7) == 4)
                          M         movlw   10h
                          M     endif
                          M     if (((003h)  & 7) == 5)
                          M         movlw   20h
                          M     endif
                          M     if (((003h)  & 7) == 6)
                          M         movlw   40h
                          M     endif
                          M     if (((003h)  & 7) == 7)
                          M         movlw   80h
                          M     endif
00034A 6E16               M         movwf   RM1
                      00433         SERMODE?C       004h
                          M         MOVE?CB 004h, GOP
                          M         CHK?RP  GOP
                          M     if (((GOP)   & 8000h) != PREV_ALT)
                          M       if ((GOP)   & 8000h)
                          M         bsf     WDTCON, ADSHR
                          M       else
                          M         bcf     WDTCON, ADSHR
                          M       endif
                          M PREV_ALT = (GOP)   & 8000h
                          M     endif
                          M     if ((((GOP)   & 0fffh) > BANKA_END) & (((GOP)   & 0fffh) < (0f01h + BANKA_END)))
                          M       if (((GOP)   & 0f00h) != (PREV_BANK << 8))
                          M         movlb   high (GOP)
                          M PREV_BANK = high (GOP)
                          M       endif
                          M     endif
                          M     if (low (004h) == 0)
                          M         clrf    GOP
                          M     else
                          M       if (low (004h) == 255)
                          M         setf    GOP
                          M       else
00034C 0E04               M         movlw   low (004h)
00034E 6E01               M         movwf   GOP
                          M       endif
                          M     endif
                      00434         SEROUT?C        054h
000350 0E54               M         movlw   054h
                          M         L?CALL  SEROUT
                          M         RST?RP
                          M     if (PREV_ALT != 0)
                          M         bcf     WDTCON, ADSHR
                          M PREV_ALT = 0
                          M     endif
                          M     if (PREV_BANK != 0)
                          M         movlb   0
MPASM 5.87          TX_CODE_RESTRUCTURED.ASM   5-23-2023  21:17:45         PAGE 82


LOC  OBJECT CODE     LINE SOURCE TEXT
  VALUE

                          M PREV_BANK = 0
                          M     endif
                          M 
                          M     ifdef USE_LINKER
                          M         call    SEROUT
                          M     else
                          M       if ((SEROUT) < 1)
                          M         call    SEROUT
                          M       else
                          M         if ((SEROUT) > $)
                          M         call    SEROUT
                          M         else
                          M           if ((SEROUT) < ($ - 3ffh))
                          M         call    SEROUT
                          M           else
000352 DE58               M         rcall   SEROUT
                          M           endif
                          M         endif
                          M       endif
                          M     endif
                      00435         SEROUT?C        054h
000354 0E54               M         movlw   054h
                          M         L?CALL  SEROUT
                          M         RST?RP
                          M     if (PREV_ALT != 0)
                          M         bcf     WDTCON, ADSHR
                          M PREV_ALT = 0
                          M     endif
                          M     if (PREV_BANK != 0)
                          M         movlb   0
                          M PREV_BANK = 0
                          M     endif
                          M 
                          M     ifdef USE_LINKER
                          M         call    SEROUT
                          M     else
                          M       if ((SEROUT) < 1)
                          M         call    SEROUT
                          M       else
                          M         if ((SEROUT) > $)
                          M         call    SEROUT
                          M         else
                          M           if ((SEROUT) < ($ - 3ffh))
                          M         call    SEROUT
                          M           else
000356 DE56               M         rcall   SEROUT
                          M           endif
                          M         endif
                          M       endif
                          M     endif
                      00436         SEROUT?C        054h
000358 0E54               M         movlw   054h
                          M         L?CALL  SEROUT
MPASM 5.87          TX_CODE_RESTRUCTURED.ASM   5-23-2023  21:17:45         PAGE 83


LOC  OBJECT CODE     LINE SOURCE TEXT
  VALUE

                          M         RST?RP
                          M     if (PREV_ALT != 0)
                          M         bcf     WDTCON, ADSHR
                          M PREV_ALT = 0
                          M     endif
                          M     if (PREV_BANK != 0)
                          M         movlb   0
                          M PREV_BANK = 0
                          M     endif
                          M 
                          M     ifdef USE_LINKER
                          M         call    SEROUT
                          M     else
                          M       if ((SEROUT) < 1)
                          M         call    SEROUT
                          M       else
                          M         if ((SEROUT) > $)
                          M         call    SEROUT
                          M         else
                          M           if ((SEROUT) < ($ - 3ffh))
                          M         call    SEROUT
                          M           else
00035A DE54               M         rcall   SEROUT
                          M           endif
                          M         endif
                          M       endif
                          M     endif
                      00437         SEROUT?C        054h
00035C 0E54               M         movlw   054h
                          M         L?CALL  SEROUT
                          M         RST?RP
                          M     if (PREV_ALT != 0)
                          M         bcf     WDTCON, ADSHR
                          M PREV_ALT = 0
                          M     endif
                          M     if (PREV_BANK != 0)
                          M         movlb   0
                          M PREV_BANK = 0
                          M     endif
                          M 
                          M     ifdef USE_LINKER
                          M         call    SEROUT
                          M     else
                          M       if ((SEROUT) < 1)
                          M         call    SEROUT
                          M       else
                          M         if ((SEROUT) > $)
                          M         call    SEROUT
                          M         else
                          M           if ((SEROUT) < ($ - 3ffh))
                          M         call    SEROUT
                          M           else
00035E DE52               M         rcall   SEROUT
MPASM 5.87          TX_CODE_RESTRUCTURED.ASM   5-23-2023  21:17:45         PAGE 84


LOC  OBJECT CODE     LINE SOURCE TEXT
  VALUE

                          M           endif
                          M         endif
                          M       endif
                          M     endif
                      00438 
                      00439 ; C:\USERS\CONNO\DOCUMENTS\4TH YEAR\PROJECT\PIC CODE\TX_CODE_RESTRUCTURED.PBP   00122           INTCON2=
                            %11110101
                      00440         MOVE?CB 0F5h, INTCON2
                          M         CHK?RP  INTCON2
                          M     if (((INTCON2) & 8000h) != PREV_ALT)
                          M       if ((INTCON2) & 8000h)
                          M         bsf     WDTCON, ADSHR
                          M       else
                          M         bcf     WDTCON, ADSHR
                          M       endif
                          M PREV_ALT = (INTCON2) & 8000h
                          M     endif
                          M     if ((((INTCON2) & 0fffh) > BANKA_END) & (((INTCON2) & 0fffh) < (0f01h + BANKA_END)))
                          M       if (((INTCON2) & 0f00h) != (PREV_BANK << 8))
                          M         movlb   high (INTCON2)
                          M PREV_BANK = high (INTCON2)
                          M       endif
                          M     endif
                          M     if (low (0F5h) == 0)
                          M         clrf    INTCON2
                          M     else
                          M       if (low (0F5h) == 255)
                          M         setf    INTCON2
                          M       else
000360 0EF5               M         movlw   low (0F5h)
000362 6EF1               M         movwf   INTCON2
                          M       endif
                          M     endif
                      00441 
                      00442 ; C:\USERS\CONNO\DOCUMENTS\4TH YEAR\PROJECT\PIC CODE\TX_CODE_RESTRUCTURED.PBP   00123           INTCON3=
                            %01001000
                      00443         MOVE?CB 048h, INTCON3
                          M         CHK?RP  INTCON3
                          M     if (((INTCON3) & 8000h) != PREV_ALT)
                          M       if ((INTCON3) & 8000h)
                          M         bsf     WDTCON, ADSHR
                          M       else
                          M         bcf     WDTCON, ADSHR
                          M       endif
                          M PREV_ALT = (INTCON3) & 8000h
                          M     endif
                          M     if ((((INTCON3) & 0fffh) > BANKA_END) & (((INTCON3) & 0fffh) < (0f01h + BANKA_END)))
                          M       if (((INTCON3) & 0f00h) != (PREV_BANK << 8))
                          M         movlb   high (INTCON3)
                          M PREV_BANK = high (INTCON3)
                          M       endif
                          M     endif
                          M     if (low (048h) == 0)
MPASM 5.87          TX_CODE_RESTRUCTURED.ASM   5-23-2023  21:17:45         PAGE 85


LOC  OBJECT CODE     LINE SOURCE TEXT
  VALUE

                          M         clrf    INTCON3
                          M     else
                          M       if (low (048h) == 255)
                          M         setf    INTCON3
                          M       else
000364 0E48               M         movlw   low (048h)
000366 6EF0               M         movwf   INTCON3
                          M       endif
                          M     endif
                      00444 
                      00445 ; C:\USERS\CONNO\DOCUMENTS\4TH YEAR\PROJECT\PIC CODE\TX_CODE_RESTRUCTURED.PBP   00124           sleep 65
                            000
                      00446         SLEEP?C 0FDE8h
                          M     if (((0FDE8h) >> 8) == 0)
                          M         MOVE?CA 0FDE8h
                          M         L?CALL  SLEEPS
                          M     else
                          M         MOVE?CB (0FDE8h) >> 8, R3 + 1
                          M         CHK?RP  R3 + 1
                          M     if (((R3 + 1) & 8000h) != PREV_ALT)
                          M       if ((R3 + 1) & 8000h)
                          M         bsf     WDTCON, ADSHR
                          M       else
                          M         bcf     WDTCON, ADSHR
                          M       endif
                          M PREV_ALT = (R3 + 1) & 8000h
                          M     endif
                          M     if ((((R3 + 1) & 0fffh) > BANKA_END) & (((R3 + 1) & 0fffh) < (0f01h + BANKA_END)))
                          M       if (((R3 + 1) & 0f00h) != (PREV_BANK << 8))
                          M         movlb   high (R3 + 1)
                          M PREV_BANK = high (R3 + 1)
                          M       endif
                          M     endif
                          M     if (low ((0FDE8h) >> 8) == 0)
                          M         clrf    R3 + 1
                          M     else
                          M       if (low ((0FDE8h) >> 8) == 255)
                          M         setf    R3 + 1
                          M       else
000368 0EFD               M         movlw   low ((0FDE8h) >> 8)
00036A 6E09               M         movwf   R3 + 1
                          M       endif
                          M     endif
                          M         MOVE?CA low (0FDE8h)
00036C 0EE8               M         movlw   low (low (0FDE8h))
                          M         L?CALL  SLEEPL
                          M         RST?RP
                          M     if (PREV_ALT != 0)
                          M         bcf     WDTCON, ADSHR
                          M PREV_ALT = 0
                          M     endif
                          M     if (PREV_BANK != 0)
                          M         movlb   0
MPASM 5.87          TX_CODE_RESTRUCTURED.ASM   5-23-2023  21:17:45         PAGE 86


LOC  OBJECT CODE     LINE SOURCE TEXT
  VALUE

                          M PREV_BANK = 0
                          M     endif
                          M 
                          M     ifdef USE_LINKER
                          M         call    SLEEPL
                          M     else
                          M       if ((SLEEPL) < 1)
                          M         call    SLEEPL
                          M       else
                          M         if ((SLEEPL) > $)
                          M         call    SLEEPL
                          M         else
                          M           if ((SLEEPL) < ($ - 3ffh))
                          M         call    SLEEPL
                          M           else
00036E DEAB               M         rcall   SLEEPL
                          M           endif
                          M         endif
                          M       endif
                          M     endif
                          M     endif
                      00447 
                      00448 ; C:\USERS\CONNO\DOCUMENTS\4TH YEAR\PROJECT\PIC CODE\TX_CODE_RESTRUCTURED.PBP   00125           INTCON3=
                            %00000000  
                      00449         MOVE?CB 000h, INTCON3
                          M         CHK?RP  INTCON3
                          M     if (((INTCON3) & 8000h) != PREV_ALT)
                          M       if ((INTCON3) & 8000h)
                          M         bsf     WDTCON, ADSHR
                          M       else
                          M         bcf     WDTCON, ADSHR
                          M       endif
                          M PREV_ALT = (INTCON3) & 8000h
                          M     endif
                          M     if ((((INTCON3) & 0fffh) > BANKA_END) & (((INTCON3) & 0fffh) < (0f01h + BANKA_END)))
                          M       if (((INTCON3) & 0f00h) != (PREV_BANK << 8))
                          M         movlb   high (INTCON3)
                          M PREV_BANK = high (INTCON3)
                          M       endif
                          M     endif
                          M     if (low (000h) == 0)
000370 6AF0               M         clrf    INTCON3
                          M     else
                          M       if (low (000h) == 255)
                          M         setf    INTCON3
                          M       else
                          M         movlw   low (000h)
                          M         movwf   INTCON3
                          M       endif
                          M     endif
                      00450 
                      00451 ; C:\USERS\CONNO\DOCUMENTS\4TH YEAR\PROJECT\PIC CODE\TX_CODE_RESTRUCTURED.PBP   00127       gosub send_n
                            othing
MPASM 5.87          TX_CODE_RESTRUCTURED.ASM   5-23-2023  21:17:45         PAGE 87


LOC  OBJECT CODE     LINE SOURCE TEXT
  VALUE

                      00452         GOSUB?L _send_nothing
  0000                    M     local dlabel
                          M     ifdef DEBUG_STACK
                          M         CHK?RP  DEBUG_STACK
                          M       ifdef DEBUG_STACK_ADDR
                          M         bcf     STATUS, C
                          M         rlcf    DEBUG_STACK, W
                          M         addlw   DEBUG_STACK_ADDR
                          M         movwf   FSR0L
                          M         clrf    FSR0H
                          M         movlw   low (dlabel)
                          M         movwf   POSTINC0
                          M         movlw   high (dlabel)
                          M         movwf   INDF0
                          M       endif
                          M         incf    DEBUG_STACK, F
                          M     endif
                          M         L?CALL  _send_nothing
                          M         RST?RP
                          M     if (PREV_ALT != 0)
                          M         bcf     WDTCON, ADSHR
                          M PREV_ALT = 0
                          M     endif
                          M     if (PREV_BANK != 0)
                          M         movlb   0
                          M PREV_BANK = 0
                          M     endif
                          M 
                          M     ifdef USE_LINKER
                          M         call    _send_nothing
                          M     else
                          M       if ((_send_nothing) < 1)
                          M         call    _send_nothing
                          M       else
                          M         if ((_send_nothing) > $)
                          M         call    _send_nothing
                          M         else
                          M           if ((_send_nothing) < ($ - 3ffh))
                          M         call    _send_nothing
                          M           else
000372 DFB6               M         rcall   _send_nothing
                          M           endif
                          M         endif
                          M       endif
                          M     endif
000374                    M dlabel
                      00453 
                      00454 ; C:\USERS\CONNO\DOCUMENTS\4TH YEAR\PROJECT\PIC CODE\TX_CODE_RESTRUCTURED.PBP   00128       time=0
                      00455         MOVE?CW 000h, _time
                          M     ifdef USE_LINKER
                          M         CHK?RP  _time
                          M         movlw   low (000h)
                          M         movwf   _time
MPASM 5.87          TX_CODE_RESTRUCTURED.ASM   5-23-2023  21:17:45         PAGE 88


LOC  OBJECT CODE     LINE SOURCE TEXT
  VALUE

                          M         movlw   high (000h)
                          M         movwf   (_time) + 1
                          M     else
                          M         MOVE?CB low (000h), _time
                          M         CHK?RP  _time
                          M     if (((_time) & 8000h) != PREV_ALT)
                          M       if ((_time) & 8000h)
                          M         bsf     WDTCON, ADSHR
                          M       else
                          M         bcf     WDTCON, ADSHR
                          M       endif
                          M PREV_ALT = (_time) & 8000h
                          M     endif
                          M     if ((((_time) & 0fffh) > BANKA_END) & (((_time) & 0fffh) < (0f01h + BANKA_END)))
                          M       if (((_time) & 0f00h) != (PREV_BANK << 8))
                          M         movlb   high (_time)
                          M PREV_BANK = high (_time)
                          M       endif
                          M     endif
                          M     if (low (low (000h)) == 0)
000374 6A24               M         clrf    _time
                          M     else
                          M       if (low (low (000h)) == 255)
                          M         setf    _time
                          M       else
                          M         movlw   low (low (000h))
                          M         movwf   _time
                          M       endif
                          M     endif
                          M         MOVE?CB high (000h), (_time) + 1
                          M         CHK?RP  (_time) + 1
                          M     if ((((_time) + 1) & 8000h) != PREV_ALT)
                          M       if (((_time) + 1) & 8000h)
                          M         bsf     WDTCON, ADSHR
                          M       else
                          M         bcf     WDTCON, ADSHR
                          M       endif
                          M PREV_ALT = ((_time) + 1) & 8000h
                          M     endif
                          M     if (((((_time) + 1) & 0fffh) > BANKA_END) & ((((_time) + 1) & 0fffh) < (0f01h + BANKA_END)))
                          M       if ((((_time) + 1) & 0f00h) != (PREV_BANK << 8))
                          M         movlb   high ((_time) + 1)
                          M PREV_BANK = high ((_time) + 1)
                          M       endif
                          M     endif
                          M     if (low (high (000h)) == 0)
000376 6A25               M         clrf    (_time) + 1
                          M     else
                          M       if (low (high (000h)) == 255)
                          M         setf    (_time) + 1
                          M       else
                          M         movlw   low (high (000h))
                          M         movwf   (_time) + 1
MPASM 5.87          TX_CODE_RESTRUCTURED.ASM   5-23-2023  21:17:45         PAGE 89


LOC  OBJECT CODE     LINE SOURCE TEXT
  VALUE

                          M       endif
                          M     endif
                          M     endif
                      00456 
                      00457 ; C:\USERS\CONNO\DOCUMENTS\4TH YEAR\PROJECT\PIC CODE\TX_CODE_RESTRUCTURED.PBP   00129       return   
                      00458         RETURN? 
                          M     ifdef DEBUG_STACK
                          M         CHK?RP  DEBUG_STACK
                          M         decf    DEBUG_STACK, F
                          M     endif
                          M         RST?RP
                          M     if (PREV_ALT != 0)
                          M         bcf     WDTCON, ADSHR
                          M PREV_ALT = 0
                          M     endif
                          M     if (PREV_BANK != 0)
                          M         movlb   0
                          M PREV_BANK = 0
                          M     endif
000378 0012               M         return
                      00459 
                      00460 ; C:\USERS\CONNO\DOCUMENTS\4TH YEAR\PROJECT\PIC CODE\TX_CODE_RESTRUCTURED.PBP   00131   lightscan:
                      00461 
                      00462         LABEL?L _lightscan      
                          M         RST?RP
                          M     if (PREV_ALT != 0)
                          M         bcf     WDTCON, ADSHR
                          M PREV_ALT = 0
                          M     endif
                          M     if (PREV_BANK != 0)
                          M         movlb   0
                          M PREV_BANK = 0
                          M     endif
                          M     ifdef PM_USED
                          M         LALL
                          M _lightscan
                          M         XALL
                          M     else
00037A                    M _lightscan
                          M     endif
                      00463 
                      00464 ; C:\USERS\CONNO\DOCUMENTS\4TH YEAR\PROJECT\PIC CODE\TX_CODE_RESTRUCTURED.PBP   00132       ADCON0= %000
                            00001
                      00465         MOVE?CB 001h, ADCON0
                          M         CHK?RP  ADCON0
                          M     if (((ADCON0) & 8000h) != PREV_ALT)
                          M       if ((ADCON0) & 8000h)
                          M         bsf     WDTCON, ADSHR
                          M       else
                          M         bcf     WDTCON, ADSHR
                          M       endif
                          M PREV_ALT = (ADCON0) & 8000h
                          M     endif
MPASM 5.87          TX_CODE_RESTRUCTURED.ASM   5-23-2023  21:17:45         PAGE 90


LOC  OBJECT CODE     LINE SOURCE TEXT
  VALUE

                          M     if ((((ADCON0) & 0fffh) > BANKA_END) & (((ADCON0) & 0fffh) < (0f01h + BANKA_END)))
                          M       if (((ADCON0) & 0f00h) != (PREV_BANK << 8))
                          M         movlb   high (ADCON0)
                          M PREV_BANK = high (ADCON0)
                          M       endif
                          M     endif
                          M     if (low (001h) == 0)
                          M         clrf    ADCON0
                          M     else
                          M       if (low (001h) == 255)
                          M         setf    ADCON0
                          M       else
00037A 0E01               M         movlw   low (001h)
00037C 6EC2               M         movwf   ADCON0
                          M       endif
                          M     endif
                      00466 
                      00467 ; C:\USERS\CONNO\DOCUMENTS\4TH YEAR\PROJECT\PIC CODE\TX_CODE_RESTRUCTURED.PBP   00133       ADCON0= %000
                            00011
                      00468         MOVE?CB 003h, ADCON0
                          M         CHK?RP  ADCON0
                          M     if (((ADCON0) & 8000h) != PREV_ALT)
                          M       if ((ADCON0) & 8000h)
                          M         bsf     WDTCON, ADSHR
                          M       else
                          M         bcf     WDTCON, ADSHR
                          M       endif
                          M PREV_ALT = (ADCON0) & 8000h
                          M     endif
                          M     if ((((ADCON0) & 0fffh) > BANKA_END) & (((ADCON0) & 0fffh) < (0f01h + BANKA_END)))
                          M       if (((ADCON0) & 0f00h) != (PREV_BANK << 8))
                          M         movlb   high (ADCON0)
                          M PREV_BANK = high (ADCON0)
                          M       endif
                          M     endif
                          M     if (low (003h) == 0)
                          M         clrf    ADCON0
                          M     else
                          M       if (low (003h) == 255)
                          M         setf    ADCON0
                          M       else
00037E 0E03               M         movlw   low (003h)
000380 6EC2               M         movwf   ADCON0
                          M       endif
                          M     endif
                      00469 
                      00470 ; C:\USERS\CONNO\DOCUMENTS\4TH YEAR\PROJECT\PIC CODE\TX_CODE_RESTRUCTURED.PBP   00134       while ADCON0
                             != %00000001
                      00471         LABEL?L L00011  
                          M         RST?RP
                          M     if (PREV_ALT != 0)
                          M         bcf     WDTCON, ADSHR
                          M PREV_ALT = 0
MPASM 5.87          TX_CODE_RESTRUCTURED.ASM   5-23-2023  21:17:45         PAGE 91


LOC  OBJECT CODE     LINE SOURCE TEXT
  VALUE

                          M     endif
                          M     if (PREV_BANK != 0)
                          M         movlb   0
                          M PREV_BANK = 0
                          M     endif
                          M     ifdef PM_USED
                          M         LALL
                          M L00011
                          M         XALL
                          M     else
000382                    M L00011
                          M     endif
                      00472         CMPEQ?BCL       ADCON0, 001h, L00012
                          M     if (((001h) > -100h) & ((001h) < 100h))
                          M         CLRWDT?
                          M     ifndef NO_CLRWDT
000382 0004               M         clrwdt
                          M     endif
                          M         MOVE?BA ADCON0
                          M         CHK?RP  ADCON0
                          M     if (((ADCON0) & 8000h) != PREV_ALT)
                          M       if ((ADCON0) & 8000h)
                          M         bsf     WDTCON, ADSHR
                          M       else
                          M         bcf     WDTCON, ADSHR
                          M       endif
                          M PREV_ALT = (ADCON0) & 8000h
                          M     endif
                          M     if ((((ADCON0) & 0fffh) > BANKA_END) & (((ADCON0) & 0fffh) < (0f01h + BANKA_END)))
                          M       if (((ADCON0) & 0f00h) != (PREV_BANK << 8))
                          M         movlb   high (ADCON0)
                          M PREV_BANK = high (ADCON0)
                          M       endif
                          M     endif
000384 50C2               M         movf    ADCON0, W
000386 0801               M         sublw   001h
                          M         BIT?GOTO 1, STATUS, Z, L00012
                          M     ifdef USE_LINKER
                          M         CLRWDT?
                          M     else
                          M       if ($ == (L00012))
                          M         CLRWDT?
                          M       endif
                          M     endif
                          M 
                          M     if (((STATUS) > BANKA_END) & ((STATUS) < (0f01h + BANKA_END)))
                          M         bcf     STATUS, OV
                          M         CHK?RP  STATUS
                          M       if ((1)      == 0)
                          M         btfss   STATUS, Z
                          M       else
                          M         btfsc   STATUS, Z
                          M       endif
MPASM 5.87          TX_CODE_RESTRUCTURED.ASM   5-23-2023  21:17:45         PAGE 92


LOC  OBJECT CODE     LINE SOURCE TEXT
  VALUE

                          M         bsf     STATUS, OV
                          M         RST?RP
                          M       ifdef USE_LINKER
                          M         btfsc   STATUS, OV
                          M         goto    L00012
                          M       else
                          M         if ((L00012) < 1)
                          M         btfsc   STATUS, OV
                          M         goto    L00012
                          M         else
                          M           if ((L00012) > $)
                          M         btfsc   STATUS, OV
                          M         goto    L00012
                          M           else
                          M             if ((L00012) < ($ - 7fh))
                          M         btfsc   STATUS, OV
                          M         goto    L00012
                          M             else
                          M         bov     L00012
                          M             endif
                          M           endif
                          M         endif
                          M       endif
                          M     else
                          M         RST?RP
                          M     if (PREV_ALT != 0)
                          M         bcf     WDTCON, ADSHR
                          M PREV_ALT = 0
                          M     endif
                          M     if (PREV_BANK != 0)
                          M         movlb   0
                          M PREV_BANK = 0
                          M     endif
                          M       if ((1)      == 0)
                          M         btfss   STATUS, Z
                          M       else
000388 B4D8               M         btfsc   STATUS, Z
                          M       endif
                          M       ifdef USE_LINKER
                          M         goto    L00012
                          M       else
                          M         if ((L00012) < 1)
                          M         goto    L00012
                          M         else
                          M           if ((L00012) > $)
00038A EFCC F001          M         goto    L00012
                          M           else
                          M             if ((L00012) < ($ - 3ffh))
                          M         goto    L00012
                          M             else
                          M         bra     L00012
                          M             endif
                          M           endif
MPASM 5.87          TX_CODE_RESTRUCTURED.ASM   5-23-2023  21:17:45         PAGE 93


LOC  OBJECT CODE     LINE SOURCE TEXT
  VALUE

                          M         endif
                          M       endif
                          M     endif
                          M     endif
                      00473 
                      00474 ; C:\USERS\CONNO\DOCUMENTS\4TH YEAR\PROJECT\PIC CODE\TX_CODE_RESTRUCTURED.PBP   00135           light=li
                            ght
                      00475         MOVE?WW _light, _light
                          M         MOVE?BB _light, _light
00038E C020 F020          M         movff   _light, _light
                          M         MOVE?BB (_light) + 1, (_light) + 1
000392 C021 F021          M         movff   (_light) + 1, (_light) + 1
                      00476 
                      00477 ; C:\USERS\CONNO\DOCUMENTS\4TH YEAR\PROJECT\PIC CODE\TX_CODE_RESTRUCTURED.PBP   00136       wend
                      00478         GOTO?L  L00011
                          M         L?GOTO  L00011
                          M     ifdef USE_LINKER
                          M         CLRWDT?
                          M     else
                          M       if ($ == (L00011))
                          M         CLRWDT?
                          M       endif
                          M     endif
                          M 
                          M         RST?RP
                          M     if (PREV_ALT != 0)
                          M         bcf     WDTCON, ADSHR
                          M PREV_ALT = 0
                          M     endif
                          M     if (PREV_BANK != 0)
                          M         movlb   0
                          M PREV_BANK = 0
                          M     endif
                          M 
                          M     ifdef USE_LINKER
                          M         goto    L00011
                          M     else
                          M       if ((L00011) < 1)
                          M         goto    L00011
                          M       else
                          M         if ((L00011) > $)
                          M         goto    L00011
                          M         else
                          M           if ((L00011) < ($ - 3ffh))
                          M         goto    L00011
                          M           else
000396 D7F5               M         bra     L00011
                          M           endif
                          M         endif
                          M       endif
                          M     endif
                      00479         LABEL?L L00012  
                          M         RST?RP
MPASM 5.87          TX_CODE_RESTRUCTURED.ASM   5-23-2023  21:17:45         PAGE 94


LOC  OBJECT CODE     LINE SOURCE TEXT
  VALUE

                          M     if (PREV_ALT != 0)
                          M         bcf     WDTCON, ADSHR
                          M PREV_ALT = 0
                          M     endif
                          M     if (PREV_BANK != 0)
                          M         movlb   0
                          M PREV_BANK = 0
                          M     endif
                          M     ifdef PM_USED
                          M         LALL
                          M L00012
                          M         XALL
                          M     else
000398                    M L00012
                          M     endif
                      00480 
                      00481 ; C:\USERS\CONNO\DOCUMENTS\4TH YEAR\PROJECT\PIC CODE\TX_CODE_RESTRUCTURED.PBP   00137       A= ADRESL + 
                            ADRESH*256
                      00482         MUL?BCW ADRESH, 00100h, T1
                          M         MOVE?BW ADRESH, R3
                          M         MOVE?BB ADRESH, R3
000398 CFC4 F008          M         movff   ADRESH, R3
                          M         CHK?RP  R3
                          M     if (((R3)    & 8000h) != PREV_ALT)
                          M       if ((R3)    & 8000h)
                          M         bsf     WDTCON, ADSHR
                          M       else
                          M         bcf     WDTCON, ADSHR
                          M       endif
                          M PREV_ALT = (R3)    & 8000h
                          M     endif
                          M     if ((((R3)    & 0fffh) > BANKA_END) & (((R3)    & 0fffh) < (0f01h + BANKA_END)))
                          M       if (((R3)    & 0f00h) != (PREV_BANK << 8))
                          M         movlb   high (R3)
                          M PREV_BANK = high (R3)
                          M       endif
                          M     endif
00039C 6A09               M         clrf    (R3)   + 1
                          M         MOVE?CW 00100h, R1
                          M     ifdef USE_LINKER
                          M         CHK?RP  R1
                          M         movlw   low (00100h)
                          M         movwf   R1
                          M         movlw   high (00100h)
                          M         movwf   (R1)   + 1
                          M     else
                          M         MOVE?CB low (00100h), R1
                          M         CHK?RP  R1
                          M     if (((R1)    & 8000h) != PREV_ALT)
                          M       if ((R1)    & 8000h)
                          M         bsf     WDTCON, ADSHR
                          M       else
                          M         bcf     WDTCON, ADSHR
MPASM 5.87          TX_CODE_RESTRUCTURED.ASM   5-23-2023  21:17:45         PAGE 95


LOC  OBJECT CODE     LINE SOURCE TEXT
  VALUE

                          M       endif
                          M PREV_ALT = (R1)    & 8000h
                          M     endif
                          M     if ((((R1)    & 0fffh) > BANKA_END) & (((R1)    & 0fffh) < (0f01h + BANKA_END)))
                          M       if (((R1)    & 0f00h) != (PREV_BANK << 8))
                          M         movlb   high (R1)
                          M PREV_BANK = high (R1)
                          M       endif
                          M     endif
                          M     if (low (low (00100h)) == 0)
00039E 6A04               M         clrf    R1
                          M     else
                          M       if (low (low (00100h)) == 255)
                          M         setf    R1
                          M       else
                          M         movlw   low (low (00100h))
                          M         movwf   R1
                          M       endif
                          M     endif
                          M         MOVE?CB high (00100h), (R1) + 1
                          M         CHK?RP  (R1) + 1
                          M     if ((((R1) + 1) & 8000h) != PREV_ALT)
                          M       if (((R1) + 1) & 8000h)
                          M         bsf     WDTCON, ADSHR
                          M       else
                          M         bcf     WDTCON, ADSHR
                          M       endif
                          M PREV_ALT = ((R1) + 1) & 8000h
                          M     endif
                          M     if (((((R1) + 1) & 0fffh) > BANKA_END) & ((((R1) + 1) & 0fffh) < (0f01h + BANKA_END)))
                          M       if ((((R1) + 1) & 0f00h) != (PREV_BANK << 8))
                          M         movlb   high ((R1) + 1)
                          M PREV_BANK = high ((R1) + 1)
                          M       endif
                          M     endif
                          M     if (low (high (00100h)) == 0)
                          M         clrf    (R1) + 1
                          M     else
                          M       if (low (high (00100h)) == 255)
                          M         setf    (R1) + 1
                          M       else
0003A0 0E01               M         movlw   low (high (00100h))
0003A2 6E05               M         movwf   (R1) + 1
                          M       endif
                          M     endif
                          M     endif
                          M         L?CALL  MUL
                          M         RST?RP
                          M     if (PREV_ALT != 0)
                          M         bcf     WDTCON, ADSHR
                          M PREV_ALT = 0
                          M     endif
                          M     if (PREV_BANK != 0)
MPASM 5.87          TX_CODE_RESTRUCTURED.ASM   5-23-2023  21:17:45         PAGE 96


LOC  OBJECT CODE     LINE SOURCE TEXT
  VALUE

                          M         movlb   0
                          M PREV_BANK = 0
                          M     endif
                          M 
                          M     ifdef USE_LINKER
                          M         call    MUL
                          M     else
                          M       if ((MUL)   < 1)
                          M         call    MUL
                          M       else
                          M         if ((MUL)   > $)
                          M         call    MUL
                          M         else
                          M           if ((MUL)   < ($ - 3ffh))
                          M         call    MUL
                          M           else
0003A4 DED3               M         rcall   MUL
                          M           endif
                          M         endif
                          M       endif
                          M     endif
                          M         MOVE?AWW R2, T1
                          M         MOVE?AB T1
                          M         CHK?RP  T1
                          M     if (((T1)    & 8000h) != PREV_ALT)
                          M       if ((T1)    & 8000h)
                          M         bsf     WDTCON, ADSHR
                          M       else
                          M         bcf     WDTCON, ADSHR
                          M       endif
                          M PREV_ALT = (T1)    & 8000h
                          M     endif
                          M     if ((((T1)    & 0fffh) > BANKA_END) & (((T1)    & 0fffh) < (0f01h + BANKA_END)))
                          M       if (((T1)    & 0f00h) != (PREV_BANK << 8))
                          M         movlb   high (T1)
                          M PREV_BANK = high (T1)
                          M       endif
                          M     endif
0003A6 6E14               M         movwf   T1
                          M         MOVE?BB (R2)  + 1, (T1)   + 1
0003A8 C007 F015          M         movff   (R2) + 1, (T1) + 1
                      00483         ADD?BWW ADRESL, T1, _A
                          M         MOVE?BA ADRESL
                          M         CHK?RP  ADRESL
                          M     if (((ADRESL) & 8000h) != PREV_ALT)
                          M       if ((ADRESL) & 8000h)
                          M         bsf     WDTCON, ADSHR
                          M       else
                          M         bcf     WDTCON, ADSHR
                          M       endif
                          M PREV_ALT = (ADRESL) & 8000h
                          M     endif
                          M     if ((((ADRESL) & 0fffh) > BANKA_END) & (((ADRESL) & 0fffh) < (0f01h + BANKA_END)))
MPASM 5.87          TX_CODE_RESTRUCTURED.ASM   5-23-2023  21:17:45         PAGE 97


LOC  OBJECT CODE     LINE SOURCE TEXT
  VALUE

                          M       if (((ADRESL) & 0f00h) != (PREV_BANK << 8))
                          M         movlb   high (ADRESL)
                          M PREV_BANK = high (ADRESL)
                          M       endif
                          M     endif
0003AC 50C3               M         movf    ADRESL, W
                          M     if ((_A)   == (T1))
                          M         CHK?RP  _A
                          M         addwf   _A,   F
                          M         clrf    WREG
                          M         addwfc  (_A)   + 1, F
                          M     else
                          M         CHK?RP  T1
                          M     if (((T1)    & 8000h) != PREV_ALT)
                          M       if ((T1)    & 8000h)
                          M         bsf     WDTCON, ADSHR
                          M       else
                          M         bcf     WDTCON, ADSHR
                          M       endif
                          M PREV_ALT = (T1)    & 8000h
                          M     endif
                          M     if ((((T1)    & 0fffh) > BANKA_END) & (((T1)    & 0fffh) < (0f01h + BANKA_END)))
                          M       if (((T1)    & 0f00h) != (PREV_BANK << 8))
                          M         movlb   high (T1)
                          M PREV_BANK = high (T1)
                          M       endif
                          M     endif
0003AE 2414               M         addwf   T1,  W
                          M         MOVE?AB _A
                          M         CHK?RP  _A
                          M     if (((_A)    & 8000h) != PREV_ALT)
                          M       if ((_A)    & 8000h)
                          M         bsf     WDTCON, ADSHR
                          M       else
                          M         bcf     WDTCON, ADSHR
                          M       endif
                          M PREV_ALT = (_A)    & 8000h
                          M     endif
                          M     if ((((_A)    & 0fffh) > BANKA_END) & (((_A)    & 0fffh) < (0f01h + BANKA_END)))
                          M       if (((_A)    & 0f00h) != (PREV_BANK << 8))
                          M         movlb   high (_A)
                          M PREV_BANK = high (_A)
                          M       endif
                          M     endif
0003B0 6E1C               M         movwf   _A
0003B2 6AE8               M         clrf    WREG
                          M         CHK?RP  T1
                          M     if (((T1)    & 8000h) != PREV_ALT)
                          M       if ((T1)    & 8000h)
                          M         bsf     WDTCON, ADSHR
                          M       else
                          M         bcf     WDTCON, ADSHR
                          M       endif
MPASM 5.87          TX_CODE_RESTRUCTURED.ASM   5-23-2023  21:17:45         PAGE 98


LOC  OBJECT CODE     LINE SOURCE TEXT
  VALUE

                          M PREV_ALT = (T1)    & 8000h
                          M     endif
                          M     if ((((T1)    & 0fffh) > BANKA_END) & (((T1)    & 0fffh) < (0f01h + BANKA_END)))
                          M       if (((T1)    & 0f00h) != (PREV_BANK << 8))
                          M         movlb   high (T1)
                          M PREV_BANK = high (T1)
                          M       endif
                          M     endif
0003B4 2015               M         addwfc  (T1)  + 1, W
                          M         MOVE?AB (_A)   + 1
                          M         CHK?RP  (_A) + 1
                          M     if ((((_A) + 1) & 8000h) != PREV_ALT)
                          M       if (((_A) + 1) & 8000h)
                          M         bsf     WDTCON, ADSHR
                          M       else
                          M         bcf     WDTCON, ADSHR
                          M       endif
                          M PREV_ALT = ((_A) + 1) & 8000h
                          M     endif
                          M     if (((((_A) + 1) & 0fffh) > BANKA_END) & ((((_A) + 1) & 0fffh) < (0f01h + BANKA_END)))
                          M       if ((((_A) + 1) & 0f00h) != (PREV_BANK << 8))
                          M         movlb   high ((_A) + 1)
                          M PREV_BANK = high ((_A) + 1)
                          M       endif
                          M     endif
0003B6 6E1D               M         movwf   (_A) + 1
                          M     endif
                      00484 
                      00485 ; C:\USERS\CONNO\DOCUMENTS\4TH YEAR\PROJECT\PIC CODE\TX_CODE_RESTRUCTURED.PBP   00138       ADCON0= %000
                            00000
                      00486         MOVE?CB 000h, ADCON0
                          M         CHK?RP  ADCON0
                          M     if (((ADCON0) & 8000h) != PREV_ALT)
                          M       if ((ADCON0) & 8000h)
                          M         bsf     WDTCON, ADSHR
                          M       else
                          M         bcf     WDTCON, ADSHR
                          M       endif
                          M PREV_ALT = (ADCON0) & 8000h
                          M     endif
                          M     if ((((ADCON0) & 0fffh) > BANKA_END) & (((ADCON0) & 0fffh) < (0f01h + BANKA_END)))
                          M       if (((ADCON0) & 0f00h) != (PREV_BANK << 8))
                          M         movlb   high (ADCON0)
                          M PREV_BANK = high (ADCON0)
                          M       endif
                          M     endif
                          M     if (low (000h) == 0)
0003B8 6AC2               M         clrf    ADCON0
                          M     else
                          M       if (low (000h) == 255)
                          M         setf    ADCON0
                          M       else
                          M         movlw   low (000h)
MPASM 5.87          TX_CODE_RESTRUCTURED.ASM   5-23-2023  21:17:45         PAGE 99


LOC  OBJECT CODE     LINE SOURCE TEXT
  VALUE

                          M         movwf   ADCON0
                          M       endif
                          M     endif
                      00487 
                      00488 ; C:\USERS\CONNO\DOCUMENTS\4TH YEAR\PROJECT\PIC CODE\TX_CODE_RESTRUCTURED.PBP   00139       return 
                      00489         RETURN? 
                          M     ifdef DEBUG_STACK
                          M         CHK?RP  DEBUG_STACK
                          M         decf    DEBUG_STACK, F
                          M     endif
                          M         RST?RP
                          M     if (PREV_ALT != 0)
                          M         bcf     WDTCON, ADSHR
                          M PREV_ALT = 0
                          M     endif
                          M     if (PREV_BANK != 0)
                          M         movlb   0
                          M PREV_BANK = 0
                          M     endif
0003BA 0012               M         return
                      00490 
                      00491 ; C:\USERS\CONNO\DOCUMENTS\4TH YEAR\PROJECT\PIC CODE\TX_CODE_RESTRUCTURED.PBP   00141   tempscan:
                      00492 
                      00493         LABEL?L _tempscan       
                          M         RST?RP
                          M     if (PREV_ALT != 0)
                          M         bcf     WDTCON, ADSHR
                          M PREV_ALT = 0
                          M     endif
                          M     if (PREV_BANK != 0)
                          M         movlb   0
                          M PREV_BANK = 0
                          M     endif
                          M     ifdef PM_USED
                          M         LALL
                          M _tempscan
                          M         XALL
                          M     else
0003BC                    M _tempscan
                          M     endif
                      00494 
                      00495 ; C:\USERS\CONNO\DOCUMENTS\4TH YEAR\PROJECT\PIC CODE\TX_CODE_RESTRUCTURED.PBP   00142       ADCON0= %000
                            00101
                      00496         MOVE?CB 005h, ADCON0
                          M         CHK?RP  ADCON0
                          M     if (((ADCON0) & 8000h) != PREV_ALT)
                          M       if ((ADCON0) & 8000h)
                          M         bsf     WDTCON, ADSHR
                          M       else
                          M         bcf     WDTCON, ADSHR
                          M       endif
                          M PREV_ALT = (ADCON0) & 8000h
                          M     endif
MPASM 5.87          TX_CODE_RESTRUCTURED.ASM   5-23-2023  21:17:45         PAGE 100


LOC  OBJECT CODE     LINE SOURCE TEXT
  VALUE

                          M     if ((((ADCON0) & 0fffh) > BANKA_END) & (((ADCON0) & 0fffh) < (0f01h + BANKA_END)))
                          M       if (((ADCON0) & 0f00h) != (PREV_BANK << 8))
                          M         movlb   high (ADCON0)
                          M PREV_BANK = high (ADCON0)
                          M       endif
                          M     endif
                          M     if (low (005h) == 0)
                          M         clrf    ADCON0
                          M     else
                          M       if (low (005h) == 255)
                          M         setf    ADCON0
                          M       else
0003BC 0E05               M         movlw   low (005h)
0003BE 6EC2               M         movwf   ADCON0
                          M       endif
                          M     endif
                      00497 
                      00498 ; C:\USERS\CONNO\DOCUMENTS\4TH YEAR\PROJECT\PIC CODE\TX_CODE_RESTRUCTURED.PBP   00143       ADCON0 =%000
                            00111
                      00499         MOVE?CB 007h, ADCON0
                          M         CHK?RP  ADCON0
                          M     if (((ADCON0) & 8000h) != PREV_ALT)
                          M       if ((ADCON0) & 8000h)
                          M         bsf     WDTCON, ADSHR
                          M       else
                          M         bcf     WDTCON, ADSHR
                          M       endif
                          M PREV_ALT = (ADCON0) & 8000h
                          M     endif
                          M     if ((((ADCON0) & 0fffh) > BANKA_END) & (((ADCON0) & 0fffh) < (0f01h + BANKA_END)))
                          M       if (((ADCON0) & 0f00h) != (PREV_BANK << 8))
                          M         movlb   high (ADCON0)
                          M PREV_BANK = high (ADCON0)
                          M       endif
                          M     endif
                          M     if (low (007h) == 0)
                          M         clrf    ADCON0
                          M     else
                          M       if (low (007h) == 255)
                          M         setf    ADCON0
                          M       else
0003C0 0E07               M         movlw   low (007h)
0003C2 6EC2               M         movwf   ADCON0
                          M       endif
                          M     endif
                      00500 
                      00501 ; C:\USERS\CONNO\DOCUMENTS\4TH YEAR\PROJECT\PIC CODE\TX_CODE_RESTRUCTURED.PBP   00144       while ADCON0
                             != %00000101
                      00502         LABEL?L L00013  
                          M         RST?RP
                          M     if (PREV_ALT != 0)
                          M         bcf     WDTCON, ADSHR
                          M PREV_ALT = 0
MPASM 5.87          TX_CODE_RESTRUCTURED.ASM   5-23-2023  21:17:45         PAGE 101


LOC  OBJECT CODE     LINE SOURCE TEXT
  VALUE

                          M     endif
                          M     if (PREV_BANK != 0)
                          M         movlb   0
                          M PREV_BANK = 0
                          M     endif
                          M     ifdef PM_USED
                          M         LALL
                          M L00013
                          M         XALL
                          M     else
0003C4                    M L00013
                          M     endif
                      00503         CMPEQ?BCL       ADCON0, 005h, L00014
                          M     if (((005h) > -100h) & ((005h) < 100h))
                          M         CLRWDT?
                          M     ifndef NO_CLRWDT
0003C4 0004               M         clrwdt
                          M     endif
                          M         MOVE?BA ADCON0
                          M         CHK?RP  ADCON0
                          M     if (((ADCON0) & 8000h) != PREV_ALT)
                          M       if ((ADCON0) & 8000h)
                          M         bsf     WDTCON, ADSHR
                          M       else
                          M         bcf     WDTCON, ADSHR
                          M       endif
                          M PREV_ALT = (ADCON0) & 8000h
                          M     endif
                          M     if ((((ADCON0) & 0fffh) > BANKA_END) & (((ADCON0) & 0fffh) < (0f01h + BANKA_END)))
                          M       if (((ADCON0) & 0f00h) != (PREV_BANK << 8))
                          M         movlb   high (ADCON0)
                          M PREV_BANK = high (ADCON0)
                          M       endif
                          M     endif
0003C6 50C2               M         movf    ADCON0, W
0003C8 0805               M         sublw   005h
                          M         BIT?GOTO 1, STATUS, Z, L00014
                          M     ifdef USE_LINKER
                          M         CLRWDT?
                          M     else
                          M       if ($ == (L00014))
                          M         CLRWDT?
                          M       endif
                          M     endif
                          M 
                          M     if (((STATUS) > BANKA_END) & ((STATUS) < (0f01h + BANKA_END)))
                          M         bcf     STATUS, OV
                          M         CHK?RP  STATUS
                          M       if ((1)      == 0)
                          M         btfss   STATUS, Z
                          M       else
                          M         btfsc   STATUS, Z
                          M       endif
MPASM 5.87          TX_CODE_RESTRUCTURED.ASM   5-23-2023  21:17:45         PAGE 102


LOC  OBJECT CODE     LINE SOURCE TEXT
  VALUE

                          M         bsf     STATUS, OV
                          M         RST?RP
                          M       ifdef USE_LINKER
                          M         btfsc   STATUS, OV
                          M         goto    L00014
                          M       else
                          M         if ((L00014) < 1)
                          M         btfsc   STATUS, OV
                          M         goto    L00014
                          M         else
                          M           if ((L00014) > $)
                          M         btfsc   STATUS, OV
                          M         goto    L00014
                          M           else
                          M             if ((L00014) < ($ - 7fh))
                          M         btfsc   STATUS, OV
                          M         goto    L00014
                          M             else
                          M         bov     L00014
                          M             endif
                          M           endif
                          M         endif
                          M       endif
                          M     else
                          M         RST?RP
                          M     if (PREV_ALT != 0)
                          M         bcf     WDTCON, ADSHR
                          M PREV_ALT = 0
                          M     endif
                          M     if (PREV_BANK != 0)
                          M         movlb   0
                          M PREV_BANK = 0
                          M     endif
                          M       if ((1)      == 0)
                          M         btfss   STATUS, Z
                          M       else
0003CA B4D8               M         btfsc   STATUS, Z
                          M       endif
                          M       ifdef USE_LINKER
                          M         goto    L00014
                          M       else
                          M         if ((L00014) < 1)
                          M         goto    L00014
                          M         else
                          M           if ((L00014) > $)
0003CC EFED F001          M         goto    L00014
                          M           else
                          M             if ((L00014) < ($ - 3ffh))
                          M         goto    L00014
                          M             else
                          M         bra     L00014
                          M             endif
                          M           endif
MPASM 5.87          TX_CODE_RESTRUCTURED.ASM   5-23-2023  21:17:45         PAGE 103


LOC  OBJECT CODE     LINE SOURCE TEXT
  VALUE

                          M         endif
                          M       endif
                          M     endif
                          M     endif
                      00504 
                      00505 ; C:\USERS\CONNO\DOCUMENTS\4TH YEAR\PROJECT\PIC CODE\TX_CODE_RESTRUCTURED.PBP   00145           temp=tem
                            p
                      00506         MOVE?WW _temp, _temp
                          M         MOVE?BB _temp, _temp
0003D0 C022 F022          M         movff   _temp, _temp
                          M         MOVE?BB (_temp) + 1, (_temp) + 1
0003D4 C023 F023          M         movff   (_temp) + 1, (_temp) + 1
                      00507 
                      00508 ; C:\USERS\CONNO\DOCUMENTS\4TH YEAR\PROJECT\PIC CODE\TX_CODE_RESTRUCTURED.PBP   00146       wend
                      00509         GOTO?L  L00013
                          M         L?GOTO  L00013
                          M     ifdef USE_LINKER
                          M         CLRWDT?
                          M     else
                          M       if ($ == (L00013))
                          M         CLRWDT?
                          M       endif
                          M     endif
                          M 
                          M         RST?RP
                          M     if (PREV_ALT != 0)
                          M         bcf     WDTCON, ADSHR
                          M PREV_ALT = 0
                          M     endif
                          M     if (PREV_BANK != 0)
                          M         movlb   0
                          M PREV_BANK = 0
                          M     endif
                          M 
                          M     ifdef USE_LINKER
                          M         goto    L00013
                          M     else
                          M       if ((L00013) < 1)
                          M         goto    L00013
                          M       else
                          M         if ((L00013) > $)
                          M         goto    L00013
                          M         else
                          M           if ((L00013) < ($ - 3ffh))
                          M         goto    L00013
                          M           else
0003D8 D7F5               M         bra     L00013
                          M           endif
                          M         endif
                          M       endif
                          M     endif
                      00510         LABEL?L L00014  
                          M         RST?RP
MPASM 5.87          TX_CODE_RESTRUCTURED.ASM   5-23-2023  21:17:45         PAGE 104


LOC  OBJECT CODE     LINE SOURCE TEXT
  VALUE

                          M     if (PREV_ALT != 0)
                          M         bcf     WDTCON, ADSHR
                          M PREV_ALT = 0
                          M     endif
                          M     if (PREV_BANK != 0)
                          M         movlb   0
                          M PREV_BANK = 0
                          M     endif
                          M     ifdef PM_USED
                          M         LALL
                          M L00014
                          M         XALL
                          M     else
0003DA                    M L00014
                          M     endif
                      00511 
                      00512 ; C:\USERS\CONNO\DOCUMENTS\4TH YEAR\PROJECT\PIC CODE\TX_CODE_RESTRUCTURED.PBP   00147       temp= ADRESL
                             + ADRESH*256
                      00513         MUL?BCW ADRESH, 00100h, T1
                          M         MOVE?BW ADRESH, R3
                          M         MOVE?BB ADRESH, R3
0003DA CFC4 F008          M         movff   ADRESH, R3
                          M         CHK?RP  R3
                          M     if (((R3)    & 8000h) != PREV_ALT)
                          M       if ((R3)    & 8000h)
                          M         bsf     WDTCON, ADSHR
                          M       else
                          M         bcf     WDTCON, ADSHR
                          M       endif
                          M PREV_ALT = (R3)    & 8000h
                          M     endif
                          M     if ((((R3)    & 0fffh) > BANKA_END) & (((R3)    & 0fffh) < (0f01h + BANKA_END)))
                          M       if (((R3)    & 0f00h) != (PREV_BANK << 8))
                          M         movlb   high (R3)
                          M PREV_BANK = high (R3)
                          M       endif
                          M     endif
0003DE 6A09               M         clrf    (R3)   + 1
                          M         MOVE?CW 00100h, R1
                          M     ifdef USE_LINKER
                          M         CHK?RP  R1
                          M         movlw   low (00100h)
                          M         movwf   R1
                          M         movlw   high (00100h)
                          M         movwf   (R1)   + 1
                          M     else
                          M         MOVE?CB low (00100h), R1
                          M         CHK?RP  R1
                          M     if (((R1)    & 8000h) != PREV_ALT)
                          M       if ((R1)    & 8000h)
                          M         bsf     WDTCON, ADSHR
                          M       else
                          M         bcf     WDTCON, ADSHR
MPASM 5.87          TX_CODE_RESTRUCTURED.ASM   5-23-2023  21:17:45         PAGE 105


LOC  OBJECT CODE     LINE SOURCE TEXT
  VALUE

                          M       endif
                          M PREV_ALT = (R1)    & 8000h
                          M     endif
                          M     if ((((R1)    & 0fffh) > BANKA_END) & (((R1)    & 0fffh) < (0f01h + BANKA_END)))
                          M       if (((R1)    & 0f00h) != (PREV_BANK << 8))
                          M         movlb   high (R1)
                          M PREV_BANK = high (R1)
                          M       endif
                          M     endif
                          M     if (low (low (00100h)) == 0)
0003E0 6A04               M         clrf    R1
                          M     else
                          M       if (low (low (00100h)) == 255)
                          M         setf    R1
                          M       else
                          M         movlw   low (low (00100h))
                          M         movwf   R1
                          M       endif
                          M     endif
                          M         MOVE?CB high (00100h), (R1) + 1
                          M         CHK?RP  (R1) + 1
                          M     if ((((R1) + 1) & 8000h) != PREV_ALT)
                          M       if (((R1) + 1) & 8000h)
                          M         bsf     WDTCON, ADSHR
                          M       else
                          M         bcf     WDTCON, ADSHR
                          M       endif
                          M PREV_ALT = ((R1) + 1) & 8000h
                          M     endif
                          M     if (((((R1) + 1) & 0fffh) > BANKA_END) & ((((R1) + 1) & 0fffh) < (0f01h + BANKA_END)))
                          M       if ((((R1) + 1) & 0f00h) != (PREV_BANK << 8))
                          M         movlb   high ((R1) + 1)
                          M PREV_BANK = high ((R1) + 1)
                          M       endif
                          M     endif
                          M     if (low (high (00100h)) == 0)
                          M         clrf    (R1) + 1
                          M     else
                          M       if (low (high (00100h)) == 255)
                          M         setf    (R1) + 1
                          M       else
0003E2 0E01               M         movlw   low (high (00100h))
0003E4 6E05               M         movwf   (R1) + 1
                          M       endif
                          M     endif
                          M     endif
                          M         L?CALL  MUL
                          M         RST?RP
                          M     if (PREV_ALT != 0)
                          M         bcf     WDTCON, ADSHR
                          M PREV_ALT = 0
                          M     endif
                          M     if (PREV_BANK != 0)
MPASM 5.87          TX_CODE_RESTRUCTURED.ASM   5-23-2023  21:17:45         PAGE 106


LOC  OBJECT CODE     LINE SOURCE TEXT
  VALUE

                          M         movlb   0
                          M PREV_BANK = 0
                          M     endif
                          M 
                          M     ifdef USE_LINKER
                          M         call    MUL
                          M     else
                          M       if ((MUL)   < 1)
                          M         call    MUL
                          M       else
                          M         if ((MUL)   > $)
                          M         call    MUL
                          M         else
                          M           if ((MUL)   < ($ - 3ffh))
                          M         call    MUL
                          M           else
0003E6 DEB2               M         rcall   MUL
                          M           endif
                          M         endif
                          M       endif
                          M     endif
                          M         MOVE?AWW R2, T1
                          M         MOVE?AB T1
                          M         CHK?RP  T1
                          M     if (((T1)    & 8000h) != PREV_ALT)
                          M       if ((T1)    & 8000h)
                          M         bsf     WDTCON, ADSHR
                          M       else
                          M         bcf     WDTCON, ADSHR
                          M       endif
                          M PREV_ALT = (T1)    & 8000h
                          M     endif
                          M     if ((((T1)    & 0fffh) > BANKA_END) & (((T1)    & 0fffh) < (0f01h + BANKA_END)))
                          M       if (((T1)    & 0f00h) != (PREV_BANK << 8))
                          M         movlb   high (T1)
                          M PREV_BANK = high (T1)
                          M       endif
                          M     endif
0003E8 6E14               M         movwf   T1
                          M         MOVE?BB (R2)  + 1, (T1)   + 1
0003EA C007 F015          M         movff   (R2) + 1, (T1) + 1
                      00514         ADD?BWW ADRESL, T1, _temp
                          M         MOVE?BA ADRESL
                          M         CHK?RP  ADRESL
                          M     if (((ADRESL) & 8000h) != PREV_ALT)
                          M       if ((ADRESL) & 8000h)
                          M         bsf     WDTCON, ADSHR
                          M       else
                          M         bcf     WDTCON, ADSHR
                          M       endif
                          M PREV_ALT = (ADRESL) & 8000h
                          M     endif
                          M     if ((((ADRESL) & 0fffh) > BANKA_END) & (((ADRESL) & 0fffh) < (0f01h + BANKA_END)))
MPASM 5.87          TX_CODE_RESTRUCTURED.ASM   5-23-2023  21:17:45         PAGE 107


LOC  OBJECT CODE     LINE SOURCE TEXT
  VALUE

                          M       if (((ADRESL) & 0f00h) != (PREV_BANK << 8))
                          M         movlb   high (ADRESL)
                          M PREV_BANK = high (ADRESL)
                          M       endif
                          M     endif
0003EE 50C3               M         movf    ADRESL, W
                          M     if ((_temp) == (T1))
                          M         CHK?RP  _temp
                          M         addwf   _temp, F
                          M         clrf    WREG
                          M         addwfc  (_temp) + 1, F
                          M     else
                          M         CHK?RP  T1
                          M     if (((T1)    & 8000h) != PREV_ALT)
                          M       if ((T1)    & 8000h)
                          M         bsf     WDTCON, ADSHR
                          M       else
                          M         bcf     WDTCON, ADSHR
                          M       endif
                          M PREV_ALT = (T1)    & 8000h
                          M     endif
                          M     if ((((T1)    & 0fffh) > BANKA_END) & (((T1)    & 0fffh) < (0f01h + BANKA_END)))
                          M       if (((T1)    & 0f00h) != (PREV_BANK << 8))
                          M         movlb   high (T1)
                          M PREV_BANK = high (T1)
                          M       endif
                          M     endif
0003F0 2414               M         addwf   T1,  W
                          M         MOVE?AB _temp
                          M         CHK?RP  _temp
                          M     if (((_temp) & 8000h) != PREV_ALT)
                          M       if ((_temp) & 8000h)
                          M         bsf     WDTCON, ADSHR
                          M       else
                          M         bcf     WDTCON, ADSHR
                          M       endif
                          M PREV_ALT = (_temp) & 8000h
                          M     endif
                          M     if ((((_temp) & 0fffh) > BANKA_END) & (((_temp) & 0fffh) < (0f01h + BANKA_END)))
                          M       if (((_temp) & 0f00h) != (PREV_BANK << 8))
                          M         movlb   high (_temp)
                          M PREV_BANK = high (_temp)
                          M       endif
                          M     endif
0003F2 6E22               M         movwf   _temp
0003F4 6AE8               M         clrf    WREG
                          M         CHK?RP  T1
                          M     if (((T1)    & 8000h) != PREV_ALT)
                          M       if ((T1)    & 8000h)
                          M         bsf     WDTCON, ADSHR
                          M       else
                          M         bcf     WDTCON, ADSHR
                          M       endif
MPASM 5.87          TX_CODE_RESTRUCTURED.ASM   5-23-2023  21:17:45         PAGE 108


LOC  OBJECT CODE     LINE SOURCE TEXT
  VALUE

                          M PREV_ALT = (T1)    & 8000h
                          M     endif
                          M     if ((((T1)    & 0fffh) > BANKA_END) & (((T1)    & 0fffh) < (0f01h + BANKA_END)))
                          M       if (((T1)    & 0f00h) != (PREV_BANK << 8))
                          M         movlb   high (T1)
                          M PREV_BANK = high (T1)
                          M       endif
                          M     endif
0003F6 2015               M         addwfc  (T1)  + 1, W
                          M         MOVE?AB (_temp) + 1
                          M         CHK?RP  (_temp) + 1
                          M     if ((((_temp) + 1) & 8000h) != PREV_ALT)
                          M       if (((_temp) + 1) & 8000h)
                          M         bsf     WDTCON, ADSHR
                          M       else
                          M         bcf     WDTCON, ADSHR
                          M       endif
                          M PREV_ALT = ((_temp) + 1) & 8000h
                          M     endif
                          M     if (((((_temp) + 1) & 0fffh) > BANKA_END) & ((((_temp) + 1) & 0fffh) < (0f01h + BANKA_END)))
                          M       if ((((_temp) + 1) & 0f00h) != (PREV_BANK << 8))
                          M         movlb   high ((_temp) + 1)
                          M PREV_BANK = high ((_temp) + 1)
                          M       endif
                          M     endif
0003F8 6E23               M         movwf   (_temp) + 1
                          M     endif
                      00515 
                      00516 ; C:\USERS\CONNO\DOCUMENTS\4TH YEAR\PROJECT\PIC CODE\TX_CODE_RESTRUCTURED.PBP   00148       ADCON0= %000
                            00100
                      00517         MOVE?CB 004h, ADCON0
                          M         CHK?RP  ADCON0
                          M     if (((ADCON0) & 8000h) != PREV_ALT)
                          M       if ((ADCON0) & 8000h)
                          M         bsf     WDTCON, ADSHR
                          M       else
                          M         bcf     WDTCON, ADSHR
                          M       endif
                          M PREV_ALT = (ADCON0) & 8000h
                          M     endif
                          M     if ((((ADCON0) & 0fffh) > BANKA_END) & (((ADCON0) & 0fffh) < (0f01h + BANKA_END)))
                          M       if (((ADCON0) & 0f00h) != (PREV_BANK << 8))
                          M         movlb   high (ADCON0)
                          M PREV_BANK = high (ADCON0)
                          M       endif
                          M     endif
                          M     if (low (004h) == 0)
                          M         clrf    ADCON0
                          M     else
                          M       if (low (004h) == 255)
                          M         setf    ADCON0
                          M       else
0003FA 0E04               M         movlw   low (004h)
MPASM 5.87          TX_CODE_RESTRUCTURED.ASM   5-23-2023  21:17:45         PAGE 109


LOC  OBJECT CODE     LINE SOURCE TEXT
  VALUE

0003FC 6EC2               M         movwf   ADCON0
                          M       endif
                          M     endif
                      00518 
                      00519 ; C:\USERS\CONNO\DOCUMENTS\4TH YEAR\PROJECT\PIC CODE\TX_CODE_RESTRUCTURED.PBP   00149       return
                      00520         RETURN? 
                          M     ifdef DEBUG_STACK
                          M         CHK?RP  DEBUG_STACK
                          M         decf    DEBUG_STACK, F
                          M     endif
                          M         RST?RP
                          M     if (PREV_ALT != 0)
                          M         bcf     WDTCON, ADSHR
                          M PREV_ALT = 0
                          M     endif
                          M     if (PREV_BANK != 0)
                          M         movlb   0
                          M PREV_BANK = 0
                          M     endif
0003FE 0012               M         return
                      00521 
                      00522 ; C:\USERS\CONNO\DOCUMENTS\4TH YEAR\PROJECT\PIC CODE\TX_CODE_RESTRUCTURED.PBP   00151   obtain:
                      00523 
                      00524         LABEL?L _obtain 
                          M         RST?RP
                          M     if (PREV_ALT != 0)
                          M         bcf     WDTCON, ADSHR
                          M PREV_ALT = 0
                          M     endif
                          M     if (PREV_BANK != 0)
                          M         movlb   0
                          M PREV_BANK = 0
                          M     endif
                          M     ifdef PM_USED
                          M         LALL
                          M _obtain
                          M         XALL
                          M     else
000400                    M _obtain
                          M     endif
                      00525 
                      00526 ; C:\USERS\CONNO\DOCUMENTS\4TH YEAR\PROJECT\PIC CODE\TX_CODE_RESTRUCTURED.PBP   00152       led=0
                      00527         MOVE?CT 000h, _led
                          M         CHK?RP  PORTB
                          M     if (((PORTB) & 8000h) != PREV_ALT)
                          M       if ((PORTB) & 8000h)
                          M         bsf     WDTCON, ADSHR
                          M       else
                          M         bcf     WDTCON, ADSHR
                          M       endif
                          M PREV_ALT = (PORTB) & 8000h
                          M     endif
                          M     if ((((PORTB) & 0fffh) > BANKA_END) & (((PORTB) & 0fffh) < (0f01h + BANKA_END)))
MPASM 5.87          TX_CODE_RESTRUCTURED.ASM   5-23-2023  21:17:45         PAGE 110


LOC  OBJECT CODE     LINE SOURCE TEXT
  VALUE

                          M       if (((PORTB) & 0f00h) != (PREV_BANK << 8))
                          M         movlb   high (PORTB)
                          M PREV_BANK = high (PORTB)
                          M       endif
                          M     endif
                          M     if (((000h) & 1) == 1)
                          M         bsf     PORTB,  000h
                          M     else
000400 9081               M         bcf     PORTB,  000h
                          M     endif
                      00528 
                      00529 ; C:\USERS\CONNO\DOCUMENTS\4TH YEAR\PROJECT\PIC CODE\TX_CODE_RESTRUCTURED.PBP   00153       pauseus 400
                      00530         PAUSEUS?C       00190h
                          M     if (((00190h) >> 8) == 0)
                          M         movlw   00190h
                          M         L?CALL  PAUSEUS
                          M     else
                          M         MOVE?CB (00190h) >> 8, R0 + 1
                          M         CHK?RP  R0 + 1
                          M     if (((R0 + 1) & 8000h) != PREV_ALT)
                          M       if ((R0 + 1) & 8000h)
                          M         bsf     WDTCON, ADSHR
                          M       else
                          M         bcf     WDTCON, ADSHR
                          M       endif
                          M PREV_ALT = (R0 + 1) & 8000h
                          M     endif
                          M     if ((((R0 + 1) & 0fffh) > BANKA_END) & (((R0 + 1) & 0fffh) < (0f01h + BANKA_END)))
                          M       if (((R0 + 1) & 0f00h) != (PREV_BANK << 8))
                          M         movlb   high (R0 + 1)
                          M PREV_BANK = high (R0 + 1)
                          M       endif
                          M     endif
                          M     if (low ((00190h) >> 8) == 0)
                          M         clrf    R0 + 1
                          M     else
                          M       if (low ((00190h) >> 8) == 255)
                          M         setf    R0 + 1
                          M       else
000402 0E01               M         movlw   low ((00190h) >> 8)
000404 6E03               M         movwf   R0 + 1
                          M       endif
                          M     endif
                          M         MOVE?CA low (00190h)
000406 0E90               M         movlw   low (low (00190h))
                          M         L?CALL  PAUSEUSL
                          M         RST?RP
                          M     if (PREV_ALT != 0)
                          M         bcf     WDTCON, ADSHR
                          M PREV_ALT = 0
                          M     endif
                          M     if (PREV_BANK != 0)
                          M         movlb   0
MPASM 5.87          TX_CODE_RESTRUCTURED.ASM   5-23-2023  21:17:45         PAGE 111


LOC  OBJECT CODE     LINE SOURCE TEXT
  VALUE

                          M PREV_BANK = 0
                          M     endif
                          M 
                          M     ifdef USE_LINKER
                          M         call    PAUSEUSL
                          M     else
                          M       if ((PAUSEUSL) < 1)
                          M         call    PAUSEUSL
                          M       else
                          M         if ((PAUSEUSL) > $)
                          M         call    PAUSEUSL
                          M         else
                          M           if ((PAUSEUSL) < ($ - 3ffh))
                          M         call    PAUSEUSL
                          M           else
000408 DE4A               M         rcall   PAUSEUSL
                          M           endif
                          M         endif
                          M       endif
                          M     endif
                          M     endif
                      00531 
                      00532 ; C:\USERS\CONNO\DOCUMENTS\4TH YEAR\PROJECT\PIC CODE\TX_CODE_RESTRUCTURED.PBP   00154       gosub lights
                            can
                      00533         GOSUB?L _lightscan
  0000                    M     local dlabel
                          M     ifdef DEBUG_STACK
                          M         CHK?RP  DEBUG_STACK
                          M       ifdef DEBUG_STACK_ADDR
                          M         bcf     STATUS, C
                          M         rlcf    DEBUG_STACK, W
                          M         addlw   DEBUG_STACK_ADDR
                          M         movwf   FSR0L
                          M         clrf    FSR0H
                          M         movlw   low (dlabel)
                          M         movwf   POSTINC0
                          M         movlw   high (dlabel)
                          M         movwf   INDF0
                          M       endif
                          M         incf    DEBUG_STACK, F
                          M     endif
                          M         L?CALL  _lightscan
                          M         RST?RP
                          M     if (PREV_ALT != 0)
                          M         bcf     WDTCON, ADSHR
                          M PREV_ALT = 0
                          M     endif
                          M     if (PREV_BANK != 0)
                          M         movlb   0
                          M PREV_BANK = 0
                          M     endif
                          M 
                          M     ifdef USE_LINKER
MPASM 5.87          TX_CODE_RESTRUCTURED.ASM   5-23-2023  21:17:45         PAGE 112


LOC  OBJECT CODE     LINE SOURCE TEXT
  VALUE

                          M         call    _lightscan
                          M     else
                          M       if ((_lightscan) < 1)
                          M         call    _lightscan
                          M       else
                          M         if ((_lightscan) > $)
                          M         call    _lightscan
                          M         else
                          M           if ((_lightscan) < ($ - 3ffh))
                          M         call    _lightscan
                          M           else
00040A DFB7               M         rcall   _lightscan
                          M           endif
                          M         endif
                          M       endif
                          M     endif
00040C                    M dlabel
                      00534 
                      00535 ; C:\USERS\CONNO\DOCUMENTS\4TH YEAR\PROJECT\PIC CODE\TX_CODE_RESTRUCTURED.PBP   00155       B=A
                      00536         MOVE?WW _A, _B
                          M         MOVE?BB _A,  _B
00040C C01C F01E          M         movff   _A,  _B
                          M         MOVE?BB (_A)  + 1, (_B)   + 1
000410 C01D F01F          M         movff   (_A) + 1, (_B) + 1
                      00537 
                      00538 ; C:\USERS\CONNO\DOCUMENTS\4TH YEAR\PROJECT\PIC CODE\TX_CODE_RESTRUCTURED.PBP   00156       led=1
                      00539         MOVE?CT 001h, _led
                          M         CHK?RP  PORTB
                          M     if (((PORTB) & 8000h) != PREV_ALT)
                          M       if ((PORTB) & 8000h)
                          M         bsf     WDTCON, ADSHR
                          M       else
                          M         bcf     WDTCON, ADSHR
                          M       endif
                          M PREV_ALT = (PORTB) & 8000h
                          M     endif
                          M     if ((((PORTB) & 0fffh) > BANKA_END) & (((PORTB) & 0fffh) < (0f01h + BANKA_END)))
                          M       if (((PORTB) & 0f00h) != (PREV_BANK << 8))
                          M         movlb   high (PORTB)
                          M PREV_BANK = high (PORTB)
                          M       endif
                          M     endif
                          M     if (((001h) & 1) == 1)
000414 8081               M         bsf     PORTB,  000h
                          M     else
                          M         bcf     PORTB,  000h
                          M     endif
                      00540 
                      00541 ; C:\USERS\CONNO\DOCUMENTS\4TH YEAR\PROJECT\PIC CODE\TX_CODE_RESTRUCTURED.PBP   00157       pauseus 400
                      00542         PAUSEUS?C       00190h
                          M     if (((00190h) >> 8) == 0)
                          M         movlw   00190h
                          M         L?CALL  PAUSEUS
MPASM 5.87          TX_CODE_RESTRUCTURED.ASM   5-23-2023  21:17:45         PAGE 113


LOC  OBJECT CODE     LINE SOURCE TEXT
  VALUE

                          M     else
                          M         MOVE?CB (00190h) >> 8, R0 + 1
                          M         CHK?RP  R0 + 1
                          M     if (((R0 + 1) & 8000h) != PREV_ALT)
                          M       if ((R0 + 1) & 8000h)
                          M         bsf     WDTCON, ADSHR
                          M       else
                          M         bcf     WDTCON, ADSHR
                          M       endif
                          M PREV_ALT = (R0 + 1) & 8000h
                          M     endif
                          M     if ((((R0 + 1) & 0fffh) > BANKA_END) & (((R0 + 1) & 0fffh) < (0f01h + BANKA_END)))
                          M       if (((R0 + 1) & 0f00h) != (PREV_BANK << 8))
                          M         movlb   high (R0 + 1)
                          M PREV_BANK = high (R0 + 1)
                          M       endif
                          M     endif
                          M     if (low ((00190h) >> 8) == 0)
                          M         clrf    R0 + 1
                          M     else
                          M       if (low ((00190h) >> 8) == 255)
                          M         setf    R0 + 1
                          M       else
000416 0E01               M         movlw   low ((00190h) >> 8)
000418 6E03               M         movwf   R0 + 1
                          M       endif
                          M     endif
                          M         MOVE?CA low (00190h)
00041A 0E90               M         movlw   low (low (00190h))
                          M         L?CALL  PAUSEUSL
                          M         RST?RP
                          M     if (PREV_ALT != 0)
                          M         bcf     WDTCON, ADSHR
                          M PREV_ALT = 0
                          M     endif
                          M     if (PREV_BANK != 0)
                          M         movlb   0
                          M PREV_BANK = 0
                          M     endif
                          M 
                          M     ifdef USE_LINKER
                          M         call    PAUSEUSL
                          M     else
                          M       if ((PAUSEUSL) < 1)
                          M         call    PAUSEUSL
                          M       else
                          M         if ((PAUSEUSL) > $)
                          M         call    PAUSEUSL
                          M         else
                          M           if ((PAUSEUSL) < ($ - 3ffh))
                          M         call    PAUSEUSL
                          M           else
00041C DE40               M         rcall   PAUSEUSL
MPASM 5.87          TX_CODE_RESTRUCTURED.ASM   5-23-2023  21:17:45         PAGE 114


LOC  OBJECT CODE     LINE SOURCE TEXT
  VALUE

                          M           endif
                          M         endif
                          M       endif
                          M     endif
                          M     endif
                      00543 
                      00544 ; C:\USERS\CONNO\DOCUMENTS\4TH YEAR\PROJECT\PIC CODE\TX_CODE_RESTRUCTURED.PBP   00158       gosub lights
                            can
                      00545         GOSUB?L _lightscan
  0000                    M     local dlabel
                          M     ifdef DEBUG_STACK
                          M         CHK?RP  DEBUG_STACK
                          M       ifdef DEBUG_STACK_ADDR
                          M         bcf     STATUS, C
                          M         rlcf    DEBUG_STACK, W
                          M         addlw   DEBUG_STACK_ADDR
                          M         movwf   FSR0L
                          M         clrf    FSR0H
                          M         movlw   low (dlabel)
                          M         movwf   POSTINC0
                          M         movlw   high (dlabel)
                          M         movwf   INDF0
                          M       endif
                          M         incf    DEBUG_STACK, F
                          M     endif
                          M         L?CALL  _lightscan
                          M         RST?RP
                          M     if (PREV_ALT != 0)
                          M         bcf     WDTCON, ADSHR
                          M PREV_ALT = 0
                          M     endif
                          M     if (PREV_BANK != 0)
                          M         movlb   0
                          M PREV_BANK = 0
                          M     endif
                          M 
                          M     ifdef USE_LINKER
                          M         call    _lightscan
                          M     else
                          M       if ((_lightscan) < 1)
                          M         call    _lightscan
                          M       else
                          M         if ((_lightscan) > $)
                          M         call    _lightscan
                          M         else
                          M           if ((_lightscan) < ($ - 3ffh))
                          M         call    _lightscan
                          M           else
00041E DFAD               M         rcall   _lightscan
                          M           endif
                          M         endif
                          M       endif
                          M     endif
MPASM 5.87          TX_CODE_RESTRUCTURED.ASM   5-23-2023  21:17:45         PAGE 115


LOC  OBJECT CODE     LINE SOURCE TEXT
  VALUE

000420                    M dlabel
                      00546 
                      00547 ; C:\USERS\CONNO\DOCUMENTS\4TH YEAR\PROJECT\PIC CODE\TX_CODE_RESTRUCTURED.PBP   00159       led=0
                      00548         MOVE?CT 000h, _led
                          M         CHK?RP  PORTB
                          M     if (((PORTB) & 8000h) != PREV_ALT)
                          M       if ((PORTB) & 8000h)
                          M         bsf     WDTCON, ADSHR
                          M       else
                          M         bcf     WDTCON, ADSHR
                          M       endif
                          M PREV_ALT = (PORTB) & 8000h
                          M     endif
                          M     if ((((PORTB) & 0fffh) > BANKA_END) & (((PORTB) & 0fffh) < (0f01h + BANKA_END)))
                          M       if (((PORTB) & 0f00h) != (PREV_BANK << 8))
                          M         movlb   high (PORTB)
                          M PREV_BANK = high (PORTB)
                          M       endif
                          M     endif
                          M     if (((000h) & 1) == 1)
                          M         bsf     PORTB,  000h
                          M     else
000420 9081               M         bcf     PORTB,  000h
                          M     endif
                      00549 
                      00550 ; C:\USERS\CONNO\DOCUMENTS\4TH YEAR\PROJECT\PIC CODE\TX_CODE_RESTRUCTURED.PBP   00160       return
                      00551         RETURN? 
                          M     ifdef DEBUG_STACK
                          M         CHK?RP  DEBUG_STACK
                          M         decf    DEBUG_STACK, F
                          M     endif
                          M         RST?RP
                          M     if (PREV_ALT != 0)
                          M         bcf     WDTCON, ADSHR
                          M PREV_ALT = 0
                          M     endif
                          M     if (PREV_BANK != 0)
                          M         movlb   0
                          M PREV_BANK = 0
                          M     endif
000422 0012               M         return
                      00552 
                      00553 ; C:\USERS\CONNO\DOCUMENTS\4TH YEAR\PROJECT\PIC CODE\TX_CODE_RESTRUCTURED.PBP   00162   batteryscan:
                      00554 
                      00555         LABEL?L _batteryscan    
                          M         RST?RP
                          M     if (PREV_ALT != 0)
                          M         bcf     WDTCON, ADSHR
                          M PREV_ALT = 0
                          M     endif
                          M     if (PREV_BANK != 0)
                          M         movlb   0
                          M PREV_BANK = 0
MPASM 5.87          TX_CODE_RESTRUCTURED.ASM   5-23-2023  21:17:45         PAGE 116


LOC  OBJECT CODE     LINE SOURCE TEXT
  VALUE

                          M     endif
                          M     ifdef PM_USED
                          M         LALL
                          M _batteryscan
                          M         XALL
                          M     else
000424                    M _batteryscan
                          M     endif
                      00556 
                      00557 ; C:\USERS\CONNO\DOCUMENTS\4TH YEAR\PROJECT\PIC CODE\TX_CODE_RESTRUCTURED.PBP   00163       ADCON0 = %00
                            001001
                      00558         MOVE?CB 009h, ADCON0
                          M         CHK?RP  ADCON0
                          M     if (((ADCON0) & 8000h) != PREV_ALT)
                          M       if ((ADCON0) & 8000h)
                          M         bsf     WDTCON, ADSHR
                          M       else
                          M         bcf     WDTCON, ADSHR
                          M       endif
                          M PREV_ALT = (ADCON0) & 8000h
                          M     endif
                          M     if ((((ADCON0) & 0fffh) > BANKA_END) & (((ADCON0) & 0fffh) < (0f01h + BANKA_END)))
                          M       if (((ADCON0) & 0f00h) != (PREV_BANK << 8))
                          M         movlb   high (ADCON0)
                          M PREV_BANK = high (ADCON0)
                          M       endif
                          M     endif
                          M     if (low (009h) == 0)
                          M         clrf    ADCON0
                          M     else
                          M       if (low (009h) == 255)
                          M         setf    ADCON0
                          M       else
000424 0E09               M         movlw   low (009h)
000426 6EC2               M         movwf   ADCON0
                          M       endif
                          M     endif
                      00559 
                      00560 ; C:\USERS\CONNO\DOCUMENTS\4TH YEAR\PROJECT\PIC CODE\TX_CODE_RESTRUCTURED.PBP   00164       ADCON0 = %00
                            001011
                      00561         MOVE?CB 00Bh, ADCON0
                          M         CHK?RP  ADCON0
                          M     if (((ADCON0) & 8000h) != PREV_ALT)
                          M       if ((ADCON0) & 8000h)
                          M         bsf     WDTCON, ADSHR
                          M       else
                          M         bcf     WDTCON, ADSHR
                          M       endif
                          M PREV_ALT = (ADCON0) & 8000h
                          M     endif
                          M     if ((((ADCON0) & 0fffh) > BANKA_END) & (((ADCON0) & 0fffh) < (0f01h + BANKA_END)))
                          M       if (((ADCON0) & 0f00h) != (PREV_BANK << 8))
                          M         movlb   high (ADCON0)
MPASM 5.87          TX_CODE_RESTRUCTURED.ASM   5-23-2023  21:17:45         PAGE 117


LOC  OBJECT CODE     LINE SOURCE TEXT
  VALUE

                          M PREV_BANK = high (ADCON0)
                          M       endif
                          M     endif
                          M     if (low (00Bh) == 0)
                          M         clrf    ADCON0
                          M     else
                          M       if (low (00Bh) == 255)
                          M         setf    ADCON0
                          M       else
000428 0E0B               M         movlw   low (00Bh)
00042A 6EC2               M         movwf   ADCON0
                          M       endif
                          M     endif
                      00562 
                      00563 ; C:\USERS\CONNO\DOCUMENTS\4TH YEAR\PROJECT\PIC CODE\TX_CODE_RESTRUCTURED.PBP   00165       while ADCON0
                             != %00001001
                      00564         LABEL?L L00015  
                          M         RST?RP
                          M     if (PREV_ALT != 0)
                          M         bcf     WDTCON, ADSHR
                          M PREV_ALT = 0
                          M     endif
                          M     if (PREV_BANK != 0)
                          M         movlb   0
                          M PREV_BANK = 0
                          M     endif
                          M     ifdef PM_USED
                          M         LALL
                          M L00015
                          M         XALL
                          M     else
00042C                    M L00015
                          M     endif
                      00565         CMPEQ?BCL       ADCON0, 009h, L00016
                          M     if (((009h) > -100h) & ((009h) < 100h))
                          M         CLRWDT?
                          M     ifndef NO_CLRWDT
00042C 0004               M         clrwdt
                          M     endif
                          M         MOVE?BA ADCON0
                          M         CHK?RP  ADCON0
                          M     if (((ADCON0) & 8000h) != PREV_ALT)
                          M       if ((ADCON0) & 8000h)
                          M         bsf     WDTCON, ADSHR
                          M       else
                          M         bcf     WDTCON, ADSHR
                          M       endif
                          M PREV_ALT = (ADCON0) & 8000h
                          M     endif
                          M     if ((((ADCON0) & 0fffh) > BANKA_END) & (((ADCON0) & 0fffh) < (0f01h + BANKA_END)))
                          M       if (((ADCON0) & 0f00h) != (PREV_BANK << 8))
                          M         movlb   high (ADCON0)
                          M PREV_BANK = high (ADCON0)
MPASM 5.87          TX_CODE_RESTRUCTURED.ASM   5-23-2023  21:17:45         PAGE 118


LOC  OBJECT CODE     LINE SOURCE TEXT
  VALUE

                          M       endif
                          M     endif
00042E 50C2               M         movf    ADCON0, W
000430 0809               M         sublw   009h
                          M         BIT?GOTO 1, STATUS, Z, L00016
                          M     ifdef USE_LINKER
                          M         CLRWDT?
                          M     else
                          M       if ($ == (L00016))
                          M         CLRWDT?
                          M       endif
                          M     endif
                          M 
                          M     if (((STATUS) > BANKA_END) & ((STATUS) < (0f01h + BANKA_END)))
                          M         bcf     STATUS, OV
                          M         CHK?RP  STATUS
                          M       if ((1)      == 0)
                          M         btfss   STATUS, Z
                          M       else
                          M         btfsc   STATUS, Z
                          M       endif
                          M         bsf     STATUS, OV
                          M         RST?RP
                          M       ifdef USE_LINKER
                          M         btfsc   STATUS, OV
                          M         goto    L00016
                          M       else
                          M         if ((L00016) < 1)
                          M         btfsc   STATUS, OV
                          M         goto    L00016
                          M         else
                          M           if ((L00016) > $)
                          M         btfsc   STATUS, OV
                          M         goto    L00016
                          M           else
                          M             if ((L00016) < ($ - 7fh))
                          M         btfsc   STATUS, OV
                          M         goto    L00016
                          M             else
                          M         bov     L00016
                          M             endif
                          M           endif
                          M         endif
                          M       endif
                          M     else
                          M         RST?RP
                          M     if (PREV_ALT != 0)
                          M         bcf     WDTCON, ADSHR
                          M PREV_ALT = 0
                          M     endif
                          M     if (PREV_BANK != 0)
                          M         movlb   0
                          M PREV_BANK = 0
MPASM 5.87          TX_CODE_RESTRUCTURED.ASM   5-23-2023  21:17:45         PAGE 119


LOC  OBJECT CODE     LINE SOURCE TEXT
  VALUE

                          M     endif
                          M       if ((1)      == 0)
                          M         btfss   STATUS, Z
                          M       else
000432 B4D8               M         btfsc   STATUS, Z
                          M       endif
                          M       ifdef USE_LINKER
                          M         goto    L00016
                          M       else
                          M         if ((L00016) < 1)
                          M         goto    L00016
                          M         else
                          M           if ((L00016) > $)
000434 EF21 F002          M         goto    L00016
                          M           else
                          M             if ((L00016) < ($ - 3ffh))
                          M         goto    L00016
                          M             else
                          M         bra     L00016
                          M             endif
                          M           endif
                          M         endif
                          M       endif
                          M     endif
                          M     endif
                      00566 
                      00567 ; C:\USERS\CONNO\DOCUMENTS\4TH YEAR\PROJECT\PIC CODE\TX_CODE_RESTRUCTURED.PBP   00166           volts=vo
                            lts
                      00568         MOVE?WW _volts, _volts
                          M         MOVE?BB _volts, _volts
000438 C026 F026          M         movff   _volts, _volts
                          M         MOVE?BB (_volts) + 1, (_volts) + 1
00043C C027 F027          M         movff   (_volts) + 1, (_volts) + 1
                      00569 
                      00570 ; C:\USERS\CONNO\DOCUMENTS\4TH YEAR\PROJECT\PIC CODE\TX_CODE_RESTRUCTURED.PBP   00167       wend
                      00571         GOTO?L  L00015
                          M         L?GOTO  L00015
                          M     ifdef USE_LINKER
                          M         CLRWDT?
                          M     else
                          M       if ($ == (L00015))
                          M         CLRWDT?
                          M       endif
                          M     endif
                          M 
                          M         RST?RP
                          M     if (PREV_ALT != 0)
                          M         bcf     WDTCON, ADSHR
                          M PREV_ALT = 0
                          M     endif
                          M     if (PREV_BANK != 0)
                          M         movlb   0
                          M PREV_BANK = 0
MPASM 5.87          TX_CODE_RESTRUCTURED.ASM   5-23-2023  21:17:45         PAGE 120


LOC  OBJECT CODE     LINE SOURCE TEXT
  VALUE

                          M     endif
                          M 
                          M     ifdef USE_LINKER
                          M         goto    L00015
                          M     else
                          M       if ((L00015) < 1)
                          M         goto    L00015
                          M       else
                          M         if ((L00015) > $)
                          M         goto    L00015
                          M         else
                          M           if ((L00015) < ($ - 3ffh))
                          M         goto    L00015
                          M           else
000440 D7F5               M         bra     L00015
                          M           endif
                          M         endif
                          M       endif
                          M     endif
                      00572         LABEL?L L00016  
                          M         RST?RP
                          M     if (PREV_ALT != 0)
                          M         bcf     WDTCON, ADSHR
                          M PREV_ALT = 0
                          M     endif
                          M     if (PREV_BANK != 0)
                          M         movlb   0
                          M PREV_BANK = 0
                          M     endif
                          M     ifdef PM_USED
                          M         LALL
                          M L00016
                          M         XALL
                          M     else
000442                    M L00016
                          M     endif
                      00573 
                      00574 ; C:\USERS\CONNO\DOCUMENTS\4TH YEAR\PROJECT\PIC CODE\TX_CODE_RESTRUCTURED.PBP   00168       volts= ADRES
                            L + ADRESH*256
                      00575         MUL?BCW ADRESH, 00100h, T1
                          M         MOVE?BW ADRESH, R3
                          M         MOVE?BB ADRESH, R3
000442 CFC4 F008          M         movff   ADRESH, R3
                          M         CHK?RP  R3
                          M     if (((R3)    & 8000h) != PREV_ALT)
                          M       if ((R3)    & 8000h)
                          M         bsf     WDTCON, ADSHR
                          M       else
                          M         bcf     WDTCON, ADSHR
                          M       endif
                          M PREV_ALT = (R3)    & 8000h
                          M     endif
                          M     if ((((R3)    & 0fffh) > BANKA_END) & (((R3)    & 0fffh) < (0f01h + BANKA_END)))
MPASM 5.87          TX_CODE_RESTRUCTURED.ASM   5-23-2023  21:17:45         PAGE 121


LOC  OBJECT CODE     LINE SOURCE TEXT
  VALUE

                          M       if (((R3)    & 0f00h) != (PREV_BANK << 8))
                          M         movlb   high (R3)
                          M PREV_BANK = high (R3)
                          M       endif
                          M     endif
000446 6A09               M         clrf    (R3)   + 1
                          M         MOVE?CW 00100h, R1
                          M     ifdef USE_LINKER
                          M         CHK?RP  R1
                          M         movlw   low (00100h)
                          M         movwf   R1
                          M         movlw   high (00100h)
                          M         movwf   (R1)   + 1
                          M     else
                          M         MOVE?CB low (00100h), R1
                          M         CHK?RP  R1
                          M     if (((R1)    & 8000h) != PREV_ALT)
                          M       if ((R1)    & 8000h)
                          M         bsf     WDTCON, ADSHR
                          M       else
                          M         bcf     WDTCON, ADSHR
                          M       endif
                          M PREV_ALT = (R1)    & 8000h
                          M     endif
                          M     if ((((R1)    & 0fffh) > BANKA_END) & (((R1)    & 0fffh) < (0f01h + BANKA_END)))
                          M       if (((R1)    & 0f00h) != (PREV_BANK << 8))
                          M         movlb   high (R1)
                          M PREV_BANK = high (R1)
                          M       endif
                          M     endif
                          M     if (low (low (00100h)) == 0)
000448 6A04               M         clrf    R1
                          M     else
                          M       if (low (low (00100h)) == 255)
                          M         setf    R1
                          M       else
                          M         movlw   low (low (00100h))
                          M         movwf   R1
                          M       endif
                          M     endif
                          M         MOVE?CB high (00100h), (R1) + 1
                          M         CHK?RP  (R1) + 1
                          M     if ((((R1) + 1) & 8000h) != PREV_ALT)
                          M       if (((R1) + 1) & 8000h)
                          M         bsf     WDTCON, ADSHR
                          M       else
                          M         bcf     WDTCON, ADSHR
                          M       endif
                          M PREV_ALT = ((R1) + 1) & 8000h
                          M     endif
                          M     if (((((R1) + 1) & 0fffh) > BANKA_END) & ((((R1) + 1) & 0fffh) < (0f01h + BANKA_END)))
                          M       if ((((R1) + 1) & 0f00h) != (PREV_BANK << 8))
                          M         movlb   high ((R1) + 1)
MPASM 5.87          TX_CODE_RESTRUCTURED.ASM   5-23-2023  21:17:45         PAGE 122


LOC  OBJECT CODE     LINE SOURCE TEXT
  VALUE

                          M PREV_BANK = high ((R1) + 1)
                          M       endif
                          M     endif
                          M     if (low (high (00100h)) == 0)
                          M         clrf    (R1) + 1
                          M     else
                          M       if (low (high (00100h)) == 255)
                          M         setf    (R1) + 1
                          M       else
00044A 0E01               M         movlw   low (high (00100h))
00044C 6E05               M         movwf   (R1) + 1
                          M       endif
                          M     endif
                          M     endif
                          M         L?CALL  MUL
                          M         RST?RP
                          M     if (PREV_ALT != 0)
                          M         bcf     WDTCON, ADSHR
                          M PREV_ALT = 0
                          M     endif
                          M     if (PREV_BANK != 0)
                          M         movlb   0
                          M PREV_BANK = 0
                          M     endif
                          M 
                          M     ifdef USE_LINKER
                          M         call    MUL
                          M     else
                          M       if ((MUL)   < 1)
                          M         call    MUL
                          M       else
                          M         if ((MUL)   > $)
                          M         call    MUL
                          M         else
                          M           if ((MUL)   < ($ - 3ffh))
                          M         call    MUL
                          M           else
00044E DE7E               M         rcall   MUL
                          M           endif
                          M         endif
                          M       endif
                          M     endif
                          M         MOVE?AWW R2, T1
                          M         MOVE?AB T1
                          M         CHK?RP  T1
                          M     if (((T1)    & 8000h) != PREV_ALT)
                          M       if ((T1)    & 8000h)
                          M         bsf     WDTCON, ADSHR
                          M       else
                          M         bcf     WDTCON, ADSHR
                          M       endif
                          M PREV_ALT = (T1)    & 8000h
                          M     endif
MPASM 5.87          TX_CODE_RESTRUCTURED.ASM   5-23-2023  21:17:45         PAGE 123


LOC  OBJECT CODE     LINE SOURCE TEXT
  VALUE

                          M     if ((((T1)    & 0fffh) > BANKA_END) & (((T1)    & 0fffh) < (0f01h + BANKA_END)))
                          M       if (((T1)    & 0f00h) != (PREV_BANK << 8))
                          M         movlb   high (T1)
                          M PREV_BANK = high (T1)
                          M       endif
                          M     endif
000450 6E14               M         movwf   T1
                          M         MOVE?BB (R2)  + 1, (T1)   + 1
000452 C007 F015          M         movff   (R2) + 1, (T1) + 1
                      00576         ADD?BWW ADRESL, T1, _volts
                          M         MOVE?BA ADRESL
                          M         CHK?RP  ADRESL
                          M     if (((ADRESL) & 8000h) != PREV_ALT)
                          M       if ((ADRESL) & 8000h)
                          M         bsf     WDTCON, ADSHR
                          M       else
                          M         bcf     WDTCON, ADSHR
                          M       endif
                          M PREV_ALT = (ADRESL) & 8000h
                          M     endif
                          M     if ((((ADRESL) & 0fffh) > BANKA_END) & (((ADRESL) & 0fffh) < (0f01h + BANKA_END)))
                          M       if (((ADRESL) & 0f00h) != (PREV_BANK << 8))
                          M         movlb   high (ADRESL)
                          M PREV_BANK = high (ADRESL)
                          M       endif
                          M     endif
000456 50C3               M         movf    ADRESL, W
                          M     if ((_volts) == (T1))
                          M         CHK?RP  _volts
                          M         addwf   _volts, F
                          M         clrf    WREG
                          M         addwfc  (_volts) + 1, F
                          M     else
                          M         CHK?RP  T1
                          M     if (((T1)    & 8000h) != PREV_ALT)
                          M       if ((T1)    & 8000h)
                          M         bsf     WDTCON, ADSHR
                          M       else
                          M         bcf     WDTCON, ADSHR
                          M       endif
                          M PREV_ALT = (T1)    & 8000h
                          M     endif
                          M     if ((((T1)    & 0fffh) > BANKA_END) & (((T1)    & 0fffh) < (0f01h + BANKA_END)))
                          M       if (((T1)    & 0f00h) != (PREV_BANK << 8))
                          M         movlb   high (T1)
                          M PREV_BANK = high (T1)
                          M       endif
                          M     endif
000458 2414               M         addwf   T1,  W
                          M         MOVE?AB _volts
                          M         CHK?RP  _volts
                          M     if (((_volts) & 8000h) != PREV_ALT)
                          M       if ((_volts) & 8000h)
MPASM 5.87          TX_CODE_RESTRUCTURED.ASM   5-23-2023  21:17:45         PAGE 124


LOC  OBJECT CODE     LINE SOURCE TEXT
  VALUE

                          M         bsf     WDTCON, ADSHR
                          M       else
                          M         bcf     WDTCON, ADSHR
                          M       endif
                          M PREV_ALT = (_volts) & 8000h
                          M     endif
                          M     if ((((_volts) & 0fffh) > BANKA_END) & (((_volts) & 0fffh) < (0f01h + BANKA_END)))
                          M       if (((_volts) & 0f00h) != (PREV_BANK << 8))
                          M         movlb   high (_volts)
                          M PREV_BANK = high (_volts)
                          M       endif
                          M     endif
00045A 6E26               M         movwf   _volts
00045C 6AE8               M         clrf    WREG
                          M         CHK?RP  T1
                          M     if (((T1)    & 8000h) != PREV_ALT)
                          M       if ((T1)    & 8000h)
                          M         bsf     WDTCON, ADSHR
                          M       else
                          M         bcf     WDTCON, ADSHR
                          M       endif
                          M PREV_ALT = (T1)    & 8000h
                          M     endif
                          M     if ((((T1)    & 0fffh) > BANKA_END) & (((T1)    & 0fffh) < (0f01h + BANKA_END)))
                          M       if (((T1)    & 0f00h) != (PREV_BANK << 8))
                          M         movlb   high (T1)
                          M PREV_BANK = high (T1)
                          M       endif
                          M     endif
00045E 2015               M         addwfc  (T1)  + 1, W
                          M         MOVE?AB (_volts) + 1
                          M         CHK?RP  (_volts) + 1
                          M     if ((((_volts) + 1) & 8000h) != PREV_ALT)
                          M       if (((_volts) + 1) & 8000h)
                          M         bsf     WDTCON, ADSHR
                          M       else
                          M         bcf     WDTCON, ADSHR
                          M       endif
                          M PREV_ALT = ((_volts) + 1) & 8000h
                          M     endif
                          M     if (((((_volts) + 1) & 0fffh) > BANKA_END) & ((((_volts) + 1) & 0fffh) < (0f01h + BANKA_END)))
                          M       if ((((_volts) + 1) & 0f00h) != (PREV_BANK << 8))
                          M         movlb   high ((_volts) + 1)
                          M PREV_BANK = high ((_volts) + 1)
                          M       endif
                          M     endif
000460 6E27               M         movwf   (_volts) + 1
                          M     endif
                      00577 
                      00578 ; C:\USERS\CONNO\DOCUMENTS\4TH YEAR\PROJECT\PIC CODE\TX_CODE_RESTRUCTURED.PBP   00169       ADCON0= %000
                            01000
                      00579         MOVE?CB 008h, ADCON0
                          M         CHK?RP  ADCON0
MPASM 5.87          TX_CODE_RESTRUCTURED.ASM   5-23-2023  21:17:45         PAGE 125


LOC  OBJECT CODE     LINE SOURCE TEXT
  VALUE

                          M     if (((ADCON0) & 8000h) != PREV_ALT)
                          M       if ((ADCON0) & 8000h)
                          M         bsf     WDTCON, ADSHR
                          M       else
                          M         bcf     WDTCON, ADSHR
                          M       endif
                          M PREV_ALT = (ADCON0) & 8000h
                          M     endif
                          M     if ((((ADCON0) & 0fffh) > BANKA_END) & (((ADCON0) & 0fffh) < (0f01h + BANKA_END)))
                          M       if (((ADCON0) & 0f00h) != (PREV_BANK << 8))
                          M         movlb   high (ADCON0)
                          M PREV_BANK = high (ADCON0)
                          M       endif
                          M     endif
                          M     if (low (008h) == 0)
                          M         clrf    ADCON0
                          M     else
                          M       if (low (008h) == 255)
                          M         setf    ADCON0
                          M       else
000462 0E08               M         movlw   low (008h)
000464 6EC2               M         movwf   ADCON0
                          M       endif
                          M     endif
                      00580 
                      00581 ; C:\USERS\CONNO\DOCUMENTS\4TH YEAR\PROJECT\PIC CODE\TX_CODE_RESTRUCTURED.PBP   00170       return
                      00582         RETURN? 
                          M     ifdef DEBUG_STACK
                          M         CHK?RP  DEBUG_STACK
                          M         decf    DEBUG_STACK, F
                          M     endif
                          M         RST?RP
                          M     if (PREV_ALT != 0)
                          M         bcf     WDTCON, ADSHR
                          M PREV_ALT = 0
                          M     endif
                          M     if (PREV_BANK != 0)
                          M         movlb   0
                          M PREV_BANK = 0
                          M     endif
000466 0012               M         return
                      00583 
                      00584         END
MPASM 5.87          TX_CODE_RESTRUCTURED.ASM   5-23-2023  21:17:45         PAGE 126


SYMBOL TABLE
  LABEL                             VALUE 

A                                 00000000
ABDEN                             00000000
ABDOVF                            00000007
ACCESS                            00000000
ACKDT                             00000005
ACKEN                             00000004
ACKSTAT                           00000006
ACQT0                             00000003
ACQT1                             00000004
ACQT2                             00000005
ACTVIE                            00000002
ACTVIF                            00000002
ADCON0                            00000FC2
ADCON1                            00000FC1
ADCON2                            00000FC0
ADCS0                             00000000
ADCS1                             00000001
ADCS2                             00000002
ADC_BITS                          00000008
ADC_CLOCK                         00000003
ADC_SAMPLEUS                      00000032
ADD?BCB                           
ADD?BWW                           
ADD?WCW                           
ADD?WWW                           
ADDEN                             00000003
ADDR0                             00000000
ADDR1                             00000001
ADDR2                             00000002
ADDR3                             00000003
ADDR4                             00000004
ADDR5                             00000005
ADDR6                             00000006
ADEN                              00000003
ADFM                              00000007
ADIE                              00000006
ADIF                              00000006
ADIP                              00000006
ADON                              00000000
ADRES                             00000FC3
ADRESH                            00000FC4
ADRESL                            00000FC3
AN0                               00000000
AN1                               00000001
AN2                               00000002
AN3                               00000003
AN4                               00000005
BANK0_END                         000000FF
BANK0_START                       00000060
BANK1_END                         000001FF
BANK1_START                       00000100
BANK2_END                         000002FF
BANK2_START                       00000200
MPASM 5.87          TX_CODE_RESTRUCTURED.ASM   5-23-2023  21:17:45         PAGE 127


SYMBOL TABLE
  LABEL                             VALUE 

BANK3_END                         000003FF
BANK3_START                       00000300
BANK4_END                         000004FF
BANK4_START                       00000400
BANK5_END                         000005FF
BANK5_START                       00000500
BANK6_END                         000006FF
BANK6_START                       00000600
BANK7_END                         000007FF
BANK7_START                       00000700
BANKA_END                         0000005F
BANKA_START                       00000000
BANKED                            00000001
BAUDCON                           00000FB8
BAUDCTL                           00000FB8
BCLIE                             00000003
BCLIF                             00000003
BCLIP                             00000003
BF                                00000000
BGST                              00000005
BIT?FLIP                          
BIT?GOTO                          
BIT?R1                            
BIT?R2                            
BIT?W                             
BLOCK_SIZE                        00000020
BOR                               00000000
BRG16                             00000003
BRGH                              00000002
BSR                               00000FE0
BTOEE                             00000004
BTOEF                             00000004
BTSEE                             00000007
BTSEF                             00000007
BUTTON_PAUSE                      0000000A
C                                 00000000
C1INV                             00000004
C1OUT                             00000006
C2INV                             00000005
C2OUT                             00000007
CCP1                              00000002
CCP1AS                            00000FB6
CCP1CON                           00000FBD
CCP1DEL                           00000FB7
CCP1IE                            00000002
CCP1IF                            00000002
CCP1IP                            00000002
CCP1M0                            00000000
CCP1M1                            00000001
CCP1M2                            00000002
CCP1M3                            00000003
CCP1_BIT                          00000002
CCP1_REG                          00000F82
MPASM 5.87          TX_CODE_RESTRUCTURED.ASM   5-23-2023  21:17:45         PAGE 128


SYMBOL TABLE
  LABEL                             VALUE 

CCP2CON                           00000FBA
CCP2IE                            00000000
CCP2IF                            00000000
CCP2IP                            00000000
CCP2M0                            00000000
CCP2M1                            00000001
CCP2M2                            00000002
CCP2M3                            00000003
CCP2_BIT                          00000001
CCP2_REG                          00000F82
CCPR1                             00000FBE
CCPR1H                            00000FBF
CCPR1L                            00000FBE
CCPR2                             00000FBB
CCPR2H                            00000FBC
CCPR2L                            00000FBB
CFGS                              00000006
CHK?RP                            
CHS0                              00000002
CHS1                              00000003
CHS2                              00000004
CHS3                              00000005
CIS                               00000003
CK                                00000006
CKE                               00000006
CKP                               00000004
CLRWDT?                           
CLRWDT?NOP                        
CM0                               00000000
CM1                               00000001
CM2                               00000002
CMCON                             00000FB4
CMIE                              00000006
CMIF                              00000006
CMIP                              00000006
CMP                               000000FC
CMPEQ?BCL                         
CMPGT?BCL                         
CMPLE                             000000F0
CMPLE?WWL                         
CMPLE_USED                        00000001
CMPLT                             000000F6
CMPLT?WCL                         
CMPLT_USED                        00000001
CMPNE?TCL                         
CMP_USED                          00000001
CRC16EE                           00000002
CRC16EF                           00000002
CRC5EE                            00000001
CRC5EF                            00000001
CREN                              00000004
CSRC                              00000007
CVR0                              00000000
MPASM 5.87          TX_CODE_RESTRUCTURED.ASM   5-23-2023  21:17:45         PAGE 129


SYMBOL TABLE
  LABEL                             VALUE 

CVR1                              00000001
CVR2                              00000002
CVR3                              00000003
CVRCON                            00000FB5
CVREF                             00000004
CVREN                             00000007
CVROE                             00000006
CVRR                              00000005
CVRSS                             00000004
D                                 00000005
DATA_ADDRESS                      00000005
DC                                00000001
DC1B0                             00000004
DC1B1                             00000005
DC2B0                             00000004
DC2B1                             00000005
DDRA                              TRISA
DDRB                              TRISB
DDRC                              TRISC
DDRD                              TRISD
DDRE                              TRISE
DEBUGIN_BIT                       00000000
DEBUGIN_MODE                      00000001
DEBUGIN_REG                       00000F81
DEBUG_BAUD                        00000960
DEBUG_BIT                         00000000
DEBUG_DELAY                       00000193
DEBUG_MODE                        00000001
DEBUG_REG                         00000F81
DFN8EE                            00000003
DFN8EF                            00000003
DIR                               00000002
DIV                               0000011C
DIV32DIV                          00000120
DIV?WCW                           
DIV_USED                          00000001
DONE                              00000001
DUNN                              00000188
DUNN5                             0000018A
DUNN_USED                         00000001
D_A                               00000005
D_NOT_A                           00000005
ECCP1AS                           00000FB6
ECCP1DEL                          00000FB7
ECCPAS0                           00000004
ECCPAS1                           00000005
ECCPAS2                           00000006
ECCPASE                           00000007
EEADR                             00000FA9
EECON1                            00000FA6
EECON2                            00000FA7
EEDATA                            00000FA8
EEIE                              00000004
MPASM 5.87          TX_CODE_RESTRUCTURED.ASM   5-23-2023  21:17:45         PAGE 130


SYMBOL TABLE
  LABEL                             VALUE 

EEIF                              00000004
EEIP                              00000004
EEPGD                             00000007
EEPROM_START                      00F00000
ENDP0                             00000003
ENDP1                             00000004
ENDP2                             00000005
ENDP3                             00000006
EPCONDIS                          00000003
EPHSHK                            00000004
EPINEN                            00000001
EPOUTEN                           00000002
EPSTALL                           00000000
FAST                              00000001
FERR                              00000002
FLAGS                             00000000
FLTS                              00000002
FREE                              00000004
FRM0                              00000000
FRM1                              00000001
FRM10                             00000002
FRM2                              00000002
FRM3                              00000003
FRM4                              00000004
FRM5                              00000005
FRM6                              00000006
FRM7                              00000007
FRM8                              00000000
FRM9                              00000001
FSEN                              00000002
FSR0                              00000000
FSR0H                             00000FEA
FSR0L                             00000FE9
FSR1                              00000001
FSR1H                             00000FE2
FSR1L                             00000FE1
FSR2                              00000002
FSR2H                             00000FDA
FSR2L                             00000FD9
GCEN                              00000007
GIE                               00000007
GIEH                              00000007
GIEL                              00000006
GIE_GIEH                          00000007
GO                                00000001
GOP                               00000001
GOSUB?L                           
GOTO?L                            
GO_DONE                           00000001
GO_NOT_DONE                       00000001
HLVDCON                           00000FD2
HLVDEN                            00000004
HLVDIE                            00000002
MPASM 5.87          TX_CODE_RESTRUCTURED.ASM   5-23-2023  21:17:45         PAGE 131


SYMBOL TABLE
  LABEL                             VALUE 

HLVDIF                            00000002
HLVDIN                            00000005
HLVDIP                            00000002
HLVDL0                            00000000
HLVDL1                            00000001
HLVDL2                            00000002
HLVDL3                            00000003
HSER2_BAUD                        00000960
HSER2_BITS                        00000008
HSER2_RCSTA                       00000090
HSER2_SPBRG                       00000019
HSER2_TXSTA                       00000020
HSER_BAUD                         00000960
HSER_BITS                         00000008
HSER_PORT                         00000001
HSER_RCSTA                        00000090
HSER_SPBRG                        00000019
HSER_TXSTA                        00000020
I2CFIRSTFLAG                      FLAGS, 2
I2CREADFLAG                       FLAGS, 3
I2CSTOPFLAG                       FLAGS, 5
I2CSTOPSTRFLAG                    FLAGS, 6
I2CWRITEFLAG                      FLAGS, 4
I2C_DAT                           00000005
I2C_READ                          00000002
I2C_START                         00000003
I2C_STOP                          00000004
IDLEIE                            00000004
IDLEIF                            00000004
IDLEN                             00000007
INDF0                             00000FEF
INDF1                             00000FE7
INDF2                             00000FDF
INIT                              0000018E
INT0                              00000000
INT0E                             00000004
INT0F                             00000001
INT0IE                            00000004
INT0IF                            00000001
INT1                              00000001
INT1E                             00000003
INT1F                             00000000
INT1IE                            00000003
INT1IF                            00000000
INT1IP                            00000006
INT1P                             00000006
INT2                              00000002
INT2E                             00000004
INT2F                             00000001
INT2IE                            00000004
INT2IF                            00000001
INT2IP                            00000007
INT2P                             00000007
MPASM 5.87          TX_CODE_RESTRUCTURED.ASM   5-23-2023  21:17:45         PAGE 132


SYMBOL TABLE
  LABEL                             VALUE 

INTCON                            00000FF2
INTCON2                           00000FF1
INTCON3                           00000FF0
INTEDG0                           00000006
INTEDG1                           00000005
INTEDG2                           00000004
INTSRC                            00000007
IOFS                              00000002
IPEN                              00000007
IPR1                              00000F9F
IPR2                              00000FA2
IRCF0                             00000004
IRCF1                             00000005
IRCF2                             00000006
IRVST                             00000005
IVRST                             00000005
L00001                            000001D8
L00002                            000001E8
L00003                            000001E8
L00005                            0000029C
L00006                            000002A8
L00007                            00000202
L00008                            00000240
L00009                            0000023E
L00011                            00000382
L00012                            00000398
L00013                            000003C4
L00014                            000003DA
L00015                            0000042C
L00016                            00000442
L?CALL                            
L?GOTO                            
LABEL?L                           
LATA                              00000F89
LATA0                             00000000
LATA1                             00000001
LATA2                             00000002
LATA3                             00000003
LATA4                             00000004
LATA5                             00000005
LATA6                             00000006
LATB                              00000F8A
LATB0                             00000000
LATB1                             00000001
LATB2                             00000002
LATB3                             00000003
LATB4                             00000004
LATB5                             00000005
LATB6                             00000006
LATB7                             00000007
LATC                              00000F8B
LATC0                             00000000
LATC1                             00000001
MPASM 5.87          TX_CODE_RESTRUCTURED.ASM   5-23-2023  21:17:45         PAGE 133


SYMBOL TABLE
  LABEL                             VALUE 

LATC2                             00000002
LATC6                             00000006
LATC7                             00000007
LCDCDFLAG                         FLAGS, 0
LCDINITFLAG                       FLAGS, 1
LCD_BITS                          00000004
LCD_COMMANDUS                     000007D0
LCD_DATAUS                        00000032
LCD_DBIT                          00000000
LCD_DREG                          00000F80
LCD_EBIT                          00000003
LCD_EREG                          00000F81
LCD_LINES                         00000002
LCD_RSBIT                         00000004
LCD_RSREG                         00000F80
LCD_RWBIT                         00000004
LCD_RWREG                         00000F80
LVDCON                            00000FD2
LVDEN                             00000004
LVDIE                             00000002
LVDIF                             00000002
LVDIN                             00000005
LVDIP                             00000002
LVDL0                             00000000
LVDL1                             00000001
LVDL2                             00000002
LVDL3                             00000003
LVV0                              00000000
LVV1                              00000001
LVV2                              00000002
LVV3                              00000003
MOVE?AB                           
MOVE?AT                           
MOVE?AW                           
MOVE?AWW                          
MOVE?BA                           
MOVE?BB                           
MOVE?BT                           
MOVE?BW                           
MOVE?CA                           
MOVE?CB                           
MOVE?CT                           
MOVE?CW                           
MOVE?TA                           
MOVE?TB                           
MOVE?TT                           
MOVE?TW                           
MOVE?WA                           
MOVE?WB                           
MOVE?WT                           
MOVE?WW                           
MOVE?WWA                          
MPASMX_USED                       00000001
MPASM 5.87          TX_CODE_RESTRUCTURED.ASM   5-23-2023  21:17:45         PAGE 134


SYMBOL TABLE
  LABEL                             VALUE 

MUL                               0000014C
MUL?BCW                           
MUL_USED                          00000001
N                                 00000004
NOT_A                             00000005
NOT_ADDRESS                       00000005
NOT_BOR                           00000000
NOT_DONE                          00000001
NOT_IPEN                          00000007
NOT_PD                            00000002
NOT_POR                           00000001
NOT_RBPU                          00000007
NOT_RI                            00000004
NOT_T1SYNC                        00000002
NOT_T3SYNC                        00000002
NOT_TO                            00000003
NOT_W                             00000002
NOT_WRITE                         00000002
OERR                              00000001
OSC                               4
OSC2                              00000006
OSCCON                            00000FD3
OSCFIE                            00000007
OSCFIF                            00000007
OSCFIP                            00000007
OSCTUNE                           00000F9B
OSC_VALID                         00000001
OSTS                              00000003
OV                                00000003
P                                 00000004
P1A                               00000002
PAUSE                             00000082
PAUSE?C                           
PAUSEL                            00000084
PAUSEUS                           0000009C
PAUSEUS?C                         
PAUSEUSL                          0000009E
PAUSEUS_USED                      00000001
PAUSE_DELAY                       000003E0
PAUSE_USED                        00000001
PBP_HARDWAREDEF                   
PBP_PATH                          C:\PROGRAM FILES (X86)\PBP3_1\
PC                                00000FF9
PCFG0                             00000000
PCFG1                             00000001
PCFG2                             00000002
PCFG3                             00000003
PCL                               00000FF9
PCLATH                            00000FFA
PCLATU                            00000FFB
PD                                00000002
PEIE                              00000006
PEIE_GIEL                         00000006
MPASM 5.87          TX_CODE_RESTRUCTURED.ASM   5-23-2023  21:17:45         PAGE 135


SYMBOL TABLE
  LABEL                             VALUE 

PEN                               00000002
PGC                               00000006
PGD                               00000007
PGM                               00000005
PIDEE                             00000000
PIDEF                             00000000
PIE1                              00000F9D
PIE2                              00000FA0
PIR                               00000F9E
PIR1                              00000F9E
PIR2                              00000FA1
PKTDIS                            00000004
PLUSW0                            00000FEB
PLUSW1                            00000FE3
PLUSW2                            00000FDB
POR                               00000001
PORTA                             00000F80
PORTB                             00000F81
PORTC                             00000F82
PORTE                             00000F84
POSTDEC0                          00000FED
POSTDEC1                          00000FE5
POSTDEC2                          00000FDD
POSTINC0                          00000FEE
POSTINC1                          00000FE6
POSTINC2                          00000FDE
PPB0                              00000000
PPB1                              00000001
PPBI                              00000001
PPBRST                            00000006
PR2                               00000FCB
PREINC0                           00000FEC
PREINC1                           00000FE4
PREINC2                           00000FDC
PREV_ALT                          00000000
PREV_BANK                         00000000
PROD                              00000FF3
PRODH                             00000FF4
PRODL                             00000FF3
PRSEN                             00000007
PSA                               00000003
PSSAC0                            00000002
PSSAC1                            00000003
R                                 00000002
R0                                00000002
R1                                00000004
R2                                00000006
R3                                00000008
R4                                0000000A
R5                                0000000C
R6                                0000000E
R7                                00000010
R8                                00000012
MPASM 5.87          TX_CODE_RESTRUCTURED.ASM   5-23-2023  21:17:45         PAGE 136


SYMBOL TABLE
  LABEL                             VALUE 

RA0                               00000000
RA1                               00000001
RA2                               00000002
RA3                               00000003
RA4                               00000004
RA5                               00000005
RA6                               00000006
RAM_BANKS                         00000008
RAM_END                           000007FF
RAM_START                         00000000
RB0                               00000000
RB1                               00000001
RB2                               00000002
RB3                               00000003
RB4                               00000004
RB5                               00000005
RB6                               00000006
RB7                               00000007
RBIE                              00000003
RBIF                              00000000
RBIP                              00000000
RBPU                              00000007
RC0                               00000000
RC1                               00000001
RC2                               00000002
RC4                               00000004
RC5                               00000005
RC6                               00000006
RC7                               00000007
RCEN                              00000003
RCIDL                             00000006
RCIE                              00000005
RCIF                              00000005
RCIP                              00000005
RCMT                              00000006
RCON                              00000FD0
RCREG                             00000FAE
RCSTA                             00000FAB
RD                                00000000
RD16                              00000007
RE3                               00000003
READ_WRITE                        00000002
RESET_ORG                         00000000
RESUME                            00000002
RETURN?                           
RI                                00000004
RM1                               00000016
RM2                               00000017
RR1                               00000018
RR2                               00000019
RS1                               0000001A
RS2                               0000001B
RSEN                              00000001
MPASM 5.87          TX_CODE_RESTRUCTURED.ASM   5-23-2023  21:17:45         PAGE 137


SYMBOL TABLE
  LABEL                             VALUE 

RST?RP                            
RX                                00000007
RX9                               00000006
RX9D                              00000000
RXDTP                             00000005
R_NOT_W                           00000002
R_W                               00000002
S                                 00000003
SBOREN                            00000006
SCKP                              00000004
SCS0                              00000000
SCS1                              00000001
SDELAY_1200                       0000031F
SDELAY_2400                       0000017F
SDELAY_300                        00000CE3
SDELAY_9600                       00000046
SE0                               00000005
SEN                               00000000
SENDB                             00000003
SERDELAY_USED                     00000001
SERMODE?C                         
SEROUT                            00000004
SEROUT?B                          
SEROUT?C                          
SEROUT_USED                       00000001
SERPIN?T                          
SHIFTR                            000000E6
SHIFTR?WCB                        
SHIFTR_USED                       00000001
SLEEP?C                           
SLEEPL                            000000C6
SLEEPS                            000000C4
SLEEP_USED                        00000001
SMP                               00000007
SOFIE                             00000006
SOFIF                             00000006
SPBRG                             00000FAF
SPBRGH                            00000FB0
SPEN                              00000007
SREN                              00000005
SSPADD                            00000FC8
SSPBUF                            00000FC9
SSPCON1                           00000FC6
SSPCON2                           00000FC5
SSPEN                             00000005
SSPIE                             00000003
SSPIF                             00000003
SSPIP                             00000003
SSPM0                             00000000
SSPM1                             00000001
SSPM2                             00000002
SSPM3                             00000003
SSPOV                             00000006
MPASM 5.87          TX_CODE_RESTRUCTURED.ASM   5-23-2023  21:17:45         PAGE 138


SYMBOL TABLE
  LABEL                             VALUE 

SSPSTAT                           00000FC7
STALLIE                           00000005
STALLIF                           00000005
STATUS                            00000FD8
STKFUL                            00000007
STKOVF                            00000007
STKPTR                            00000FFC
STKPTR0                           00000000
STKPTR1                           00000001
STKPTR2                           00000002
STKPTR3                           00000003
STKPTR4                           00000004
STKUNF                            00000006
SUB?WWW                           
SUSPND                            00000001
SWDTE                             00000000
SWDTEN                            00000000
SYNC                              00000004
T08BIT                            00000006
T0CKI                             00000004
T0CON                             00000FD5
T0CS                              00000005
T0IE                              00000005
T0IF                              00000002
T0IP                              00000002
T0PS0                             00000000
T0PS1                             00000001
T0PS2                             00000002
T0SE                              00000004
T1                                00000014
T13CKI                            00000000
T1CKPS0                           00000004
T1CKPS1                           00000005
T1CON                             00000FCD
T1OSCEN                           00000003
T1OSI                             00000001
T1OSO                             00000000
T1RUN                             00000006
T1SYNC                            00000002
T2CKPS0                           00000000
T2CKPS1                           00000001
T2CON                             00000FCA
T2OUTPS0                          00000003
T2OUTPS1                          00000004
T2OUTPS2                          00000005
T2OUTPS3                          00000006
T3CCP1                            00000003
T3CCP2                            00000006
T3CKPS0                           00000004
T3CKPS1                           00000005
T3CON                             00000FB1
T3NSYNC                           00000002
T3SYNC                            00000002
MPASM 5.87          TX_CODE_RESTRUCTURED.ASM   5-23-2023  21:17:45         PAGE 139


SYMBOL TABLE
  LABEL                             VALUE 

TABLAT                            00000FF5
TBLPTR                            00000FF6
TBLPTRH                           00000FF7
TBLPTRL                           00000FF6
TBLPTRU                           00000FF8
TMR0                              00000FD6
TMR0H                             00000FD7
TMR0IE                            00000005
TMR0IF                            00000002
TMR0IP                            00000002
TMR0L                             00000FD6
TMR0ON                            00000007
TMR1                              00000FCE
TMR1CS                            00000001
TMR1H                             00000FCF
TMR1IE                            00000000
TMR1IF                            00000000
TMR1IP                            00000000
TMR1L                             00000FCE
TMR1ON                            00000000
TMR2                              00000FCC
TMR2IE                            00000001
TMR2IF                            00000001
TMR2IP                            00000001
TMR2ON                            00000002
TMR3                              00000FB2
TMR3CS                            00000001
TMR3H                             00000FB3
TMR3IE                            00000001
TMR3IF                            00000001
TMR3IP                            00000001
TMR3L                             00000FB2
TMR3ON                            00000000
TO                                00000003
TOS                               00000FFD
TOSH                              00000FFE
TOSL                              00000FFD
TOSU                              00000FFF
TOUTPS0                           00000003
TOUTPS1                           00000004
TOUTPS2                           00000005
TOUTPS3                           00000006
TRISA                             00000F92
TRISA0                            00000000
TRISA1                            00000001
TRISA2                            00000002
TRISA3                            00000003
TRISA4                            00000004
TRISA5                            00000005
TRISA6                            00000006
TRISB                             00000F93
TRISB0                            00000000
TRISB1                            00000001
MPASM 5.87          TX_CODE_RESTRUCTURED.ASM   5-23-2023  21:17:45         PAGE 140


SYMBOL TABLE
  LABEL                             VALUE 

TRISB2                            00000002
TRISB3                            00000003
TRISB4                            00000004
TRISB5                            00000005
TRISB6                            00000006
TRISB7                            00000007
TRISC                             00000F94
TRISC0                            00000000
TRISC1                            00000001
TRISC2                            00000002
TRISC6                            00000006
TRISC7                            00000007
TRMT                              00000001
TRNIE                             00000003
TRNIF                             00000003
TUN0                              00000000
TUN1                              00000001
TUN2                              00000002
TUN3                              00000003
TUN4                              00000004
TX                                00000006
TX9                               00000006
TX9D                              00000000
TXCKP                             00000004
TXEN                              00000005
TXIE                              00000004
TXIF                              00000004
TXIP                              00000004
TXREG                             00000FAD
TXSTA                             00000FAC
UA                                00000001
UADDR                             00000F6E
UCFG                              00000F6F
UCON                              00000F6D
UEIE                              00000F6B
UEIR                              00000F6A
UEP0                              00000F70
UEP1                              00000F71
UEP10                             00000F7A
UEP11                             00000F7B
UEP12                             00000F7C
UEP13                             00000F7D
UEP14                             00000F7E
UEP15                             00000F7F
UEP2                              00000F72
UEP3                              00000F73
UEP4                              00000F74
UEP5                              00000F75
UEP6                              00000F76
UEP7                              00000F77
UEP8                              00000F78
UEP9                              00000F79
UERRIE                            00000001
MPASM 5.87          TX_CODE_RESTRUCTURED.ASM   5-23-2023  21:17:45         PAGE 141


SYMBOL TABLE
  LABEL                             VALUE 

UERRIF                            00000001
UFRM                              00000F66
UFRMH                             00000F67
UFRML                             00000F66
UIE                               00000F69
UIR                               00000F68
UOEMON                            00000006
UPUEN                             00000004
URSTIE                            00000000
URSTIF                            00000000
USBEN                             00000003
USBIE                             00000005
USBIF                             00000005
USBIP                             00000005
USTAT                             00000F6C
UTEYE                             00000007
UTRDIS                            00000003
VCFG0                             00000004
VCFG1                             00000005
VDIRMAG                           00000007
VREFM                             00000002
VREFP                             00000003
W                                 00000000
WCOL                              00000007
WDTCON                            00000FD1
WR                                00000001
WREG                              00000FE8
WREN                              00000002
WRERR                             00000003
WUE                               00000001
Z                                 00000002
_A                                0000001C
_B                                0000001E
_BORV_0_2L                        000000E7
_BORV_1_2L                        000000EF
_BORV_2_2L                        000000F7
_BORV_3_2L                        000000FF
_BOR_OFF_2L                       000000F9
_BOR_ON_2L                        000000FF
_BOR_ON_ACTIVE_2L                 000000FD
_BOR_SOFT_2L                      000000FB
_CCP2MX_OFF_3H                    000000FE
_CCP2MX_ON_3H                     000000FF
_CONFIG1H                         00300001
_CONFIG1L                         00300000
_CONFIG2H                         00300003
_CONFIG2L                         00300002
_CONFIG3H                         00300005
_CONFIG4L                         00300006
_CONFIG5H                         00300009
_CONFIG5L                         00300008
_CONFIG6H                         0030000B
_CONFIG6L                         0030000A
MPASM 5.87          TX_CODE_RESTRUCTURED.ASM   5-23-2023  21:17:45         PAGE 142


SYMBOL TABLE
  LABEL                             VALUE 

_CONFIG7H                         0030000D
_CONFIG7L                         0030000C
_CP0_OFF_5L                       000000FF
_CP0_ON_5L                        000000FE
_CP1_OFF_5L                       000000FF
_CP1_ON_5L                        000000FD
_CP2_OFF_5L                       000000FF
_CP2_ON_5L                        000000FB
_CP3_OFF_5L                       000000FF
_CP3_ON_5L                        000000F7
_CPB_OFF_5H                       000000FF
_CPB_ON_5H                        000000BF
_CPD_OFF_5H                       000000FF
_CPD_ON_5H                        0000007F
_CPUDIV_OSC1_PLL2_1L              000000E7
_CPUDIV_OSC2_PLL3_1L              000000EF
_CPUDIV_OSC3_PLL4_1L              000000F7
_CPUDIV_OSC4_PLL6_1L              000000FF
_DEBUG_OFF_4L                     000000FF
_DEBUG_ON_4L                      0000007F
_DEVID1                           003FFFFE
_DEVID2                           003FFFFF
_EBTR0_OFF_7L                     000000FF
_EBTR0_ON_7L                      000000FE
_EBTR1_OFF_7L                     000000FF
_EBTR1_ON_7L                      000000FD
_EBTR2_OFF_7L                     000000FF
_EBTR2_ON_7L                      000000FB
_EBTR3_OFF_7L                     000000FF
_EBTR3_ON_7L                      000000F7
_EBTRB_OFF_7H                     000000FF
_EBTRB_ON_7H                      000000BF
_FCMEN_OFF_1H                     000000BF
_FCMEN_ON_1H                      000000FF
_FOSC_ECIO_EC_1H                  000000F4
_FOSC_ECPLLIO_EC_1H               000000F6
_FOSC_ECPLL_EC_1H                 000000F7
_FOSC_EC_EC_1H                    000000F5
_FOSC_HSPLL_HS_1H                 000000FE
_FOSC_HS_1H                       000000FC
_FOSC_INTOSCIO_EC_1H              000000F8
_FOSC_INTOSC_EC_1H                000000F9
_FOSC_INTOSC_HS_1H                000000FB
_FOSC_INTOSC_XT_1H                000000FA
_FOSC_XTPLL_XT_1H                 000000F2
_FOSC_XT_XT_1H                    000000F0
_IDLOC0                           00200000
_IDLOC1                           00200001
_IDLOC2                           00200002
_IDLOC3                           00200003
_IDLOC4                           00200004
_IDLOC5                           00200005
_IDLOC6                           00200006
MPASM 5.87          TX_CODE_RESTRUCTURED.ASM   5-23-2023  21:17:45         PAGE 143


SYMBOL TABLE
  LABEL                             VALUE 

_IDLOC7                           00200007
_IESO_OFF_1H                      0000007F
_IESO_ON_1H                       000000FF
_LPT1OSC_OFF_3H                   000000FB
_LPT1OSC_ON_3H                    000000FF
_LVP_OFF_4L                       000000FB
_LVP_ON_4L                        000000FF
_MCLRE_OFF_3H                     0000007F
_MCLRE_ON_3H                      000000FF
_PBADEN_OFF_3H                    000000FD
_PBADEN_ON_3H                     000000FF
_PLLDIV_10_1L                     000000FE
_PLLDIV_12_1L                     000000FF
_PLLDIV_1_1L                      000000F8
_PLLDIV_2_1L                      000000F9
_PLLDIV_3_1L                      000000FA
_PLLDIV_4_1L                      000000FB
_PLLDIV_5_1L                      000000FC
_PLLDIV_6_1L                      000000FD
_PORTA??0                         PORTA, 000h
_PORTA??1                         PORTA, 001h
_PORTA??2                         PORTA, 002h
_PORTB??0                         PORTB, 000h
_PORTB??1                         PORTB, 001h
_PORTB??2                         PORTB, 002h
_PORTB??3                         PORTB, 003h
_PORTH                            00000F82
_PORTL                            00000F81
_PWRT_OFF_2L                      000000FF
_PWRT_ON_2L                       000000FE
_Piezo                            _PORTB??2
_STVREN_OFF_4L                    000000FE
_STVREN_ON_4L                     000000FF
_TRISH                            00000F94
_TRISL                            00000F93
_USBDIV_1_1L                      000000DF
_USBDIV_2_1L                      000000FF
_USBMEMORYADDRESS                 00000400
_VREGEN_OFF_2L                    000000DF
_VREGEN_ON_2L                     000000FF
_WDTPS_1024_2H                    000000F5
_WDTPS_128_2H                     000000EF
_WDTPS_16384_2H                   000000FD
_WDTPS_16_2H                      000000E9
_WDTPS_1_2H                       000000E1
_WDTPS_2048_2H                    000000F7
_WDTPS_256_2H                     000000F1
_WDTPS_2_2H                       000000E3
_WDTPS_32768_2H                   000000FF
_WDTPS_32_2H                      000000EB
_WDTPS_4096_2H                    000000F9
_WDTPS_4_2H                       000000E5
_WDTPS_512_2H                     000000F3
MPASM 5.87          TX_CODE_RESTRUCTURED.ASM   5-23-2023  21:17:45         PAGE 144


SYMBOL TABLE
  LABEL                             VALUE 

_WDTPS_64_2H                      000000ED
_WDTPS_8192_2H                    000000FB
_WDTPS_8_2H                       000000E7
_WDT_OFF_2H                       000000FE
_WDT_ON_2H                        000000FF
_WRT0_OFF_6L                      000000FF
_WRT0_ON_6L                       000000FE
_WRT1_OFF_6L                      000000FF
_WRT1_ON_6L                       000000FD
_WRT2_OFF_6L                      000000FF
_WRT2_ON_6L                       000000FB
_WRT3_OFF_6L                      000000FF
_WRT3_ON_6L                       000000F7
_WRTB_OFF_6H                      000000FF
_WRTB_ON_6H                       000000BF
_WRTC_OFF_6H                      000000FF
_WRTC_ON_6H                       000000DF
_WRTD_OFF_6H                      000000FF
_WRTD_ON_6H                       0000007F
_XINST_OFF_4L                     000000BF
_XINST_ON_4L                      000000FF
__18F2550                         00000001
_arduino                          _PORTB??3
_battery_signal                   _PORTA??2
_batteryscan                      00000424
_counting                         00000028
_cycle                            000001AC
_cycles                           0000003C
_init                             0000019E
_led                              _PORTB??0
_light                            00000020
_lightA                           00000029
_lightB                           0000002A
_light_signal                     _PORTA??0
_lightscan                        0000037A
_obtain                           00000400
_send                             000002AE
_send_nothing                     000002E0
_sleep_time                       000002F6
_temp                             00000022
_tempA                            0000002B
_tempB                            0000002C
_temp_signal                      _PORTA??1
_tempscan                         000003BC
_tilt                             _PORTB??1
_time                             00000024
_volts                            00000026
_voltsA                           0000002D
_voltsB                           0000002E
cmpnoteq                          00000108
divloop                           00000124
divok                             0000013E
main                              0000018E
MPASM 5.87          TX_CODE_RESTRUCTURED.ASM   5-23-2023  21:17:45         PAGE 145


SYMBOL TABLE
  LABEL                             VALUE 

pauseloop                         00000086
pauseusdone                       000000C2
pauseush                          000000B0
pauseusloop                       000000A8
serdelay                          0000005A
seroutbit                         0000002C
seroutloop                        0000001C
seroutnorm                        00000046
sertable                          0000007A
shiftrloop                        000000E0
sleeploop                         000000D2


MEMORY USAGE MAP ('X' = Used,  '-' = Unused)

0000 : XXXXXXXXXXXXXXXX XXXXXXXXXXXXXXXX XXXXXXXXXXXXXXXX XXXXXXXXXXXXXXXX
0040 : XXXXXXXXXXXXXXXX XXXXXXXXXXXXXXXX XXXXXXXXXXXXXXXX XXXXXXXXXXXXXXXX
0080 : XXXXXXXXXXXXXXXX XXXXXXXXXXXXXXXX XXXXXXXXXXXXXXXX XXXXXXXXXXXXXXXX
00C0 : XXXXXXXXXXXXXXXX XXXXXXXXXXXXXXXX XXXXXXXXXXXXXXXX XXXXXXXXXXXXXXXX
0100 : XXXXXXXXXXXXXXXX XXXXXXXXXXXXXXXX XXXXXXXXXXXXXXXX XXXXXXXXXXXXXXXX
0140 : XXXXXXXXXXXXXXXX XXXXXXXXXXXXXXXX XXXXXXXXXXXXXXXX XXXXXXXXXXXXXXXX
0180 : XXXXXXXXXXXXXXXX XXXXXXXXXXXXXXXX XXXXXXXXXXXXXXXX XXXXXXXXXXXXXXXX
01C0 : XXXXXXXXXXXXXXXX XXXXXXXXXXXXXXXX XXXXXXXXXXXXXXXX XXXXXXXXXXXXXXXX
0200 : XXXXXXXXXXXXXXXX XXXXXXXXXXXXXXXX XXXXXXXXXXXXXXXX XXXXXXXXXXXXXXXX
0240 : XXXXXXXXXXXXXXXX XXXXXXXXXXXXXXXX XXXXXXXXXXXXXXXX XXXXXXXXXXXXXXXX
0280 : XXXXXXXXXXXXXXXX XXXXXXXXXXXXXXXX XXXXXXXXXXXXXXXX XXXXXXXXXXXXXXXX
02C0 : XXXXXXXXXXXXXXXX XXXXXXXXXXXXXXXX XXXXXXXXXXXXXXXX XXXXXXXXXXXXXXXX
0300 : XXXXXXXXXXXXXXXX XXXXXXXXXXXXXXXX XXXXXXXXXXXXXXXX XXXXXXXXXXXXXXXX
0340 : XXXXXXXXXXXXXXXX XXXXXXXXXXXXXXXX XXXXXXXXXXXXXXXX XXXXXXXXXXXXXXXX
0380 : XXXXXXXXXXXXXXXX XXXXXXXXXXXXXXXX XXXXXXXXXXXXXXXX XXXXXXXXXXXXXXXX
03C0 : XXXXXXXXXXXXXXXX XXXXXXXXXXXXXXXX XXXXXXXXXXXXXXXX XXXXXXXXXXXXXXXX
0400 : XXXXXXXXXXXXXXXX XXXXXXXXXXXXXXXX XXXXXXXXXXXXXXXX XXXXXXXXXXXXXXXX
0440 : XXXXXXXXXXXXXXXX XXXXXXXXXXXXXXXX XXXXXXXX-------- ----------------
0000 : XXXX-XX-XXXXXX-- ---------------- ---------------- ----------------

All other memory blocks unused.

Program Memory Bytes Used:  1140
Program Memory Bytes Free: 31628


Errors   :     0
Warnings :     0 reported,     0 suppressed
Messages :     0 reported,     0 suppressed

